
puzzlebin:     file format elf64-x86-64


Disassembly of section .init:

0000000000009000 <_init>:
    9000:	f3 0f 1e fa          	endbr64 
    9004:	48 83 ec 08          	sub    $0x8,%rsp
    9008:	48 c7 c0 00 00 00 00 	mov    $0x0,%rax
    900f:	48 85 c0             	test   %rax,%rax
    9012:	74 02                	je     9016 <_init+0x16>
    9014:	ff d0                	call   *%rax
    9016:	48 83 c4 08          	add    $0x8,%rsp
    901a:	c3                   	ret    

Disassembly of section .plt:

0000000000009020 <.plt>:
    9020:	ff 35 ca af 0e 00    	push   0xeafca(%rip)        # f3ff0 <_GLOBAL_OFFSET_TABLE_+0x8>
    9026:	ff 25 cc af 0e 00    	jmp    *0xeafcc(%rip)        # f3ff8 <_GLOBAL_OFFSET_TABLE_+0x10>
    902c:	0f 1f 40 00          	nopl   0x0(%rax)
    9030:	ff 25 ca af 0e 00    	jmp    *0xeafca(%rip)        # f4000 <_GLOBAL_OFFSET_TABLE_+0x18>
    9036:	68 13 00 00 00       	push   $0x13
    903b:	e9 e0 ff ff ff       	jmp    9020 <_init+0x20>
    9040:	ff 25 c2 af 0e 00    	jmp    *0xeafc2(%rip)        # f4008 <_GLOBAL_OFFSET_TABLE_+0x20>
    9046:	68 12 00 00 00       	push   $0x12
    904b:	e9 d0 ff ff ff       	jmp    9020 <_init+0x20>
    9050:	ff 25 ba af 0e 00    	jmp    *0xeafba(%rip)        # f4010 <_GLOBAL_OFFSET_TABLE_+0x28>
    9056:	68 11 00 00 00       	push   $0x11
    905b:	e9 c0 ff ff ff       	jmp    9020 <_init+0x20>
    9060:	ff 25 b2 af 0e 00    	jmp    *0xeafb2(%rip)        # f4018 <_GLOBAL_OFFSET_TABLE_+0x30>
    9066:	68 02 00 00 00       	push   $0x2
    906b:	e9 b0 ff ff ff       	jmp    9020 <_init+0x20>
    9070:	ff 25 aa af 0e 00    	jmp    *0xeafaa(%rip)        # f4020 <_GLOBAL_OFFSET_TABLE_+0x38>
    9076:	68 10 00 00 00       	push   $0x10
    907b:	e9 a0 ff ff ff       	jmp    9020 <_init+0x20>
    9080:	ff 25 a2 af 0e 00    	jmp    *0xeafa2(%rip)        # f4028 <_GLOBAL_OFFSET_TABLE_+0x40>
    9086:	68 0f 00 00 00       	push   $0xf
    908b:	e9 90 ff ff ff       	jmp    9020 <_init+0x20>
    9090:	ff 25 9a af 0e 00    	jmp    *0xeaf9a(%rip)        # f4030 <_GLOBAL_OFFSET_TABLE_+0x48>
    9096:	68 0e 00 00 00       	push   $0xe
    909b:	e9 80 ff ff ff       	jmp    9020 <_init+0x20>
    90a0:	ff 25 92 af 0e 00    	jmp    *0xeaf92(%rip)        # f4038 <_GLOBAL_OFFSET_TABLE_+0x50>
    90a6:	68 0d 00 00 00       	push   $0xd
    90ab:	e9 70 ff ff ff       	jmp    9020 <_init+0x20>
    90b0:	ff 25 8a af 0e 00    	jmp    *0xeaf8a(%rip)        # f4040 <_GLOBAL_OFFSET_TABLE_+0x58>
    90b6:	68 0c 00 00 00       	push   $0xc
    90bb:	e9 60 ff ff ff       	jmp    9020 <_init+0x20>
    90c0:	ff 25 82 af 0e 00    	jmp    *0xeaf82(%rip)        # f4048 <_GLOBAL_OFFSET_TABLE_+0x60>
    90c6:	68 0b 00 00 00       	push   $0xb
    90cb:	e9 50 ff ff ff       	jmp    9020 <_init+0x20>
    90d0:	ff 25 7a af 0e 00    	jmp    *0xeaf7a(%rip)        # f4050 <_GLOBAL_OFFSET_TABLE_+0x68>
    90d6:	68 0a 00 00 00       	push   $0xa
    90db:	e9 40 ff ff ff       	jmp    9020 <_init+0x20>
    90e0:	ff 25 72 af 0e 00    	jmp    *0xeaf72(%rip)        # f4058 <_GLOBAL_OFFSET_TABLE_+0x70>
    90e6:	68 01 00 00 00       	push   $0x1
    90eb:	e9 30 ff ff ff       	jmp    9020 <_init+0x20>
    90f0:	ff 25 6a af 0e 00    	jmp    *0xeaf6a(%rip)        # f4060 <_GLOBAL_OFFSET_TABLE_+0x78>
    90f6:	68 09 00 00 00       	push   $0x9
    90fb:	e9 20 ff ff ff       	jmp    9020 <_init+0x20>
    9100:	ff 25 62 af 0e 00    	jmp    *0xeaf62(%rip)        # f4068 <_GLOBAL_OFFSET_TABLE_+0x80>
    9106:	68 08 00 00 00       	push   $0x8
    910b:	e9 10 ff ff ff       	jmp    9020 <_init+0x20>
    9110:	ff 25 5a af 0e 00    	jmp    *0xeaf5a(%rip)        # f4070 <_GLOBAL_OFFSET_TABLE_+0x88>
    9116:	68 00 00 00 00       	push   $0x0
    911b:	e9 00 ff ff ff       	jmp    9020 <_init+0x20>
    9120:	ff 25 52 af 0e 00    	jmp    *0xeaf52(%rip)        # f4078 <_GLOBAL_OFFSET_TABLE_+0x90>
    9126:	68 07 00 00 00       	push   $0x7
    912b:	e9 f0 fe ff ff       	jmp    9020 <_init+0x20>
    9130:	ff 25 4a af 0e 00    	jmp    *0xeaf4a(%rip)        # f4080 <_GLOBAL_OFFSET_TABLE_+0x98>
    9136:	68 06 00 00 00       	push   $0x6
    913b:	e9 e0 fe ff ff       	jmp    9020 <_init+0x20>
    9140:	ff 25 42 af 0e 00    	jmp    *0xeaf42(%rip)        # f4088 <_GLOBAL_OFFSET_TABLE_+0xa0>
    9146:	68 05 00 00 00       	push   $0x5
    914b:	e9 d0 fe ff ff       	jmp    9020 <_init+0x20>
    9150:	ff 25 3a af 0e 00    	jmp    *0xeaf3a(%rip)        # f4090 <_GLOBAL_OFFSET_TABLE_+0xa8>
    9156:	68 04 00 00 00       	push   $0x4
    915b:	e9 c0 fe ff ff       	jmp    9020 <_init+0x20>
    9160:	ff 25 32 af 0e 00    	jmp    *0xeaf32(%rip)        # f4098 <_GLOBAL_OFFSET_TABLE_+0xb0>
    9166:	68 03 00 00 00       	push   $0x3
    916b:	e9 b0 fe ff ff       	jmp    9020 <_init+0x20>

Disassembly of section .text:

0000000000009180 <intel_check_word.constprop.0.cold>:
    9180:	48 8d 0d f9 1c 0b 00 	lea    0xb1cf9(%rip),%rcx        # bae80 <__PRETTY_FUNCTION__.0>
    9187:	ba e7 00 00 00       	mov    $0xe7,%edx
    918c:	48 8d 35 a4 91 0a 00 	lea    0xa91a4(%rip),%rsi        # b2337 <__rseq_flags+0x333>
    9193:	48 8d 3d bb 91 0a 00 	lea    0xa91bb(%rip),%rdi        # b2355 <__rseq_flags+0x351>
    919a:	e8 01 60 00 00       	call   f1a0 <__libc_assert_fail>
    919f:	48 8d 0d da 1c 0b 00 	lea    0xb1cda(%rip),%rcx        # bae80 <__PRETTY_FUNCTION__.0>
    91a6:	ba b7 00 00 00       	mov    $0xb7,%edx
    91ab:	48 8d 35 85 91 0a 00 	lea    0xa9185(%rip),%rsi        # b2337 <__rseq_flags+0x333>
    91b2:	48 8d 3d 9c 91 0a 00 	lea    0xa919c(%rip),%rdi        # b2355 <__rseq_flags+0x351>
    91b9:	e8 e2 5f 00 00       	call   f1a0 <__libc_assert_fail>

00000000000091be <abort>:
    91be:	f3 0f 1e fa          	endbr64 
    91c2:	55                   	push   %rbp
    91c3:	48 89 e5             	mov    %rsp,%rbp
    91c6:	48 81 ec b0 00 00 00 	sub    $0xb0,%rsp
    91cd:	64 48 8b 3c 25 28 00 	mov    %fs:0x28,%rdi
    91d4:	00 00 
    91d6:	48 89 7d f8          	mov    %rdi,-0x8(%rbp)
    91da:	bf 06 00 00 00       	mov    $0x6,%edi
    91df:	e8 cc 73 05 00       	call   605b0 <gsignal>
    91e4:	31 ff                	xor    %edi,%edi
    91e6:	e8 95 64 00 00       	call   f680 <__abort_lock_wrlock>
    91eb:	31 c0                	xor    %eax,%eax
    91ed:	48 8d bd 60 ff ff ff 	lea    -0xa0(%rbp),%rdi
    91f4:	31 d2                	xor    %edx,%edx
    91f6:	b9 26 00 00 00       	mov    $0x26,%ecx
    91fb:	48 8d b5 60 ff ff ff 	lea    -0xa0(%rbp),%rsi
    9202:	f3 ab                	rep stos %eax,%es:(%rdi)
    9204:	bf 06 00 00 00       	mov    $0x6,%edi
    9209:	48 c7 85 68 ff ff ff 	movq   $0xffffffffffffffff,-0x98(%rbp)
    9210:	ff ff ff ff 
    9214:	e8 47 62 00 00       	call   f460 <__libc_sigaction>
    9219:	bf 06 00 00 00       	mov    $0x6,%edi
    921e:	e8 ad 0b 02 00       	call   29dd0 <__pthread_raise_internal>
    9223:	48 8d b5 58 ff ff ff 	lea    -0xa8(%rbp),%rsi
    922a:	41 ba 08 00 00 00    	mov    $0x8,%r10d
    9230:	48 c7 85 58 ff ff ff 	movq   $0x20,-0xa8(%rbp)
    9237:	20 00 00 00 
    923b:	31 d2                	xor    %edx,%edx
    923d:	bf 01 00 00 00       	mov    $0x1,%edi
    9242:	b8 0e 00 00 00       	mov    $0xe,%eax
    9247:	0f 05                	syscall 
    9249:	f4                   	hlt    
    924a:	bf 7f 00 00 00       	mov    $0x7f,%edi
    924f:	e8 ac 96 03 00       	call   42900 <_Exit>

0000000000009254 <perror_internal>:
    9254:	55                   	push   %rbp
    9255:	48 89 e5             	mov    %rsp,%rbp
    9258:	41 55                	push   %r13
    925a:	49 89 fd             	mov    %rdi,%r13
    925d:	41 54                	push   %r12
    925f:	53                   	push   %rbx
    9260:	48 81 ec 18 04 00 00 	sub    $0x418,%rsp
    9267:	64 48 8b 3c 25 28 00 	mov    %fs:0x28,%rdi
    926e:	00 00 
    9270:	48 89 7d d8          	mov    %rdi,-0x28(%rbp)
    9274:	89 d7                	mov    %edx,%edi
    9276:	48 85 f6             	test   %rsi,%rsi
    9279:	74 0f                	je     928a <perror_internal+0x36>
    927b:	48 89 f3             	mov    %rsi,%rbx
    927e:	4c 8d 25 ab 99 0a 00 	lea    0xa99ab(%rip),%r12        # b2c30 <__PRETTY_FUNCTION__.20+0x4c5>
    9285:	80 3e 00             	cmpb   $0x0,(%rsi)
    9288:	75 0a                	jne    9294 <perror_internal+0x40>
    928a:	4c 8d 25 c0 ae 0a 00 	lea    0xaaec0(%rip),%r12        # b4151 <slashdot.0+0xb4>
    9291:	4c 89 e3             	mov    %r12,%rbx
    9294:	48 8d b5 d8 fb ff ff 	lea    -0x428(%rbp),%rsi
    929b:	ba 00 04 00 00       	mov    $0x400,%edx
    92a0:	e8 3b 7f 02 00       	call   311e0 <strerror_r>
    92a5:	4c 89 e1             	mov    %r12,%rcx
    92a8:	48 89 da             	mov    %rbx,%rdx
    92ab:	4c 89 ef             	mov    %r13,%rdi
    92ae:	49 89 c0             	mov    %rax,%r8
    92b1:	48 8d 35 39 ac 0a 00 	lea    0xaac39(%rip),%rsi        # b3ef1 <not_available+0xc91>
    92b8:	31 c0                	xor    %eax,%eax
    92ba:	e8 81 67 01 00       	call   1fa40 <__fxprintf>
    92bf:	48 8b 45 d8          	mov    -0x28(%rbp),%rax
    92c3:	64 48 2b 04 25 28 00 	sub    %fs:0x28,%rax
    92ca:	00 00 
    92cc:	74 06                	je     92d4 <perror_internal+0x80>
    92ce:	67 e8 9c cd 03 00    	addr32 call 46070 <__stack_chk_fail>
    92d4:	48 81 c4 18 04 00 00 	add    $0x418,%rsp
    92db:	5b                   	pop    %rbx
    92dc:	41 5c                	pop    %r12
    92de:	41 5d                	pop    %r13
    92e0:	5d                   	pop    %rbp
    92e1:	c3                   	ret    

00000000000092e2 <perror>:
    92e2:	f3 0f 1e fa          	endbr64 
    92e6:	55                   	push   %rbp
    92e7:	48 c7 c0 f0 ff ff ff 	mov    $0xfffffffffffffff0,%rax
    92ee:	48 89 e5             	mov    %rsp,%rbp
    92f1:	41 56                	push   %r14
    92f3:	41 55                	push   %r13
    92f5:	49 89 fd             	mov    %rdi,%r13
    92f8:	48 8b 3d 89 b6 0e 00 	mov    0xeb689(%rip),%rdi        # f4988 <stderr>
    92ff:	41 54                	push   %r12
    9301:	53                   	push   %rbx
    9302:	64 44 8b 30          	mov    %fs:(%rax),%r14d
    9306:	83 bf c0 00 00 00 00 	cmpl   $0x0,0xc0(%rdi)
    930d:	75 38                	jne    9347 <perror+0x65>
    930f:	e8 dc a3 01 00       	call   236f0 <fileno>
    9314:	83 f8 ff             	cmp    $0xffffffff,%eax
    9317:	74 2e                	je     9347 <perror+0x65>
    9319:	89 c7                	mov    %eax,%edi
    931b:	e8 e0 b0 03 00       	call   44400 <dup>
    9320:	41 89 c4             	mov    %eax,%r12d
    9323:	83 f8 ff             	cmp    $0xffffffff,%eax
    9326:	74 1f                	je     9347 <perror+0x65>
    9328:	48 8d 35 7c 90 0a 00 	lea    0xa907c(%rip),%rsi        # b23ab <__rseq_flags+0x3a7>
    932f:	89 c7                	mov    %eax,%edi
    9331:	67 e8 d9 78 01 00    	addr32 call 20c10 <_IO_new_fdopen>
    9337:	48 89 c3             	mov    %rax,%rbx
    933a:	48 85 c0             	test   %rax,%rax
    933d:	75 22                	jne    9361 <perror+0x7f>
    933f:	44 89 e7             	mov    %r12d,%edi
    9342:	e8 89 b0 03 00       	call   443d0 <__libc_close>
    9347:	48 8b 3d 3a b6 0e 00 	mov    0xeb63a(%rip),%rdi        # f4988 <stderr>
    934e:	5b                   	pop    %rbx
    934f:	44 89 f2             	mov    %r14d,%edx
    9352:	4c 89 ee             	mov    %r13,%rsi
    9355:	41 5c                	pop    %r12
    9357:	41 5d                	pop    %r13
    9359:	41 5e                	pop    %r14
    935b:	5d                   	pop    %rbp
    935c:	e9 f3 fe ff ff       	jmp    9254 <perror_internal>
    9361:	44 89 f2             	mov    %r14d,%edx
    9364:	4c 89 ee             	mov    %r13,%rsi
    9367:	48 89 c7             	mov    %rax,%rdi
    936a:	e8 e5 fe ff ff       	call   9254 <perror_internal>
    936f:	f6 03 20             	testb  $0x20,(%rbx)
    9372:	74 0a                	je     937e <perror+0x9c>
    9374:	48 8b 05 0d b6 0e 00 	mov    0xeb60d(%rip),%rax        # f4988 <stderr>
    937b:	83 08 20             	orl    $0x20,(%rax)
    937e:	48 89 df             	mov    %rbx,%rdi
    9381:	5b                   	pop    %rbx
    9382:	41 5c                	pop    %r12
    9384:	41 5d                	pop    %r13
    9386:	41 5e                	pop    %r14
    9388:	5d                   	pop    %rbp
    9389:	e9 c2 75 01 00       	jmp    20950 <_IO_new_fclose>
    938e:	90                   	nop

000000000000938f <_IO_new_fclose.cold>:
    938f:	f6 43 01 80          	testb  $0x80,0x1(%rbx)
    9393:	75 28                	jne    93bd <_IO_new_fclose.cold+0x2e>
    9395:	48 8b 93 88 00 00 00 	mov    0x88(%rbx),%rdx
    939c:	80 3d 75 bf 0e 00 00 	cmpb   $0x0,0xebf75(%rip)        # f5318 <__libc_single_threaded>
    93a3:	8b 42 04             	mov    0x4(%rdx),%eax
    93a6:	74 1e                	je     93c6 <_IO_new_fclose.cold+0x37>
    93a8:	85 c0                	test   %eax,%eax
    93aa:	75 39                	jne    93e5 <_IO_new_fclose.cold+0x56>
    93ac:	31 f6                	xor    %esi,%esi
    93ae:	31 ff                	xor    %edi,%edi
    93b0:	48 89 72 08          	mov    %rsi,0x8(%rdx)
    93b4:	48 8b 83 88 00 00 00 	mov    0x88(%rbx),%rax
    93bb:	89 38                	mov    %edi,(%rax)
    93bd:	4c 89 e7             	mov    %r12,%rdi
    93c0:	67 e8 fa 27 0a 00    	addr32 call abbc0 <_Unwind_Resume>
    93c6:	85 c0                	test   %eax,%eax
    93c8:	75 1b                	jne    93e5 <_IO_new_fclose.cold+0x56>
    93ca:	31 c9                	xor    %ecx,%ecx
    93cc:	48 89 4a 08          	mov    %rcx,0x8(%rdx)
    93d0:	48 8b bb 88 00 00 00 	mov    0x88(%rbx),%rdi
    93d7:	87 07                	xchg   %eax,(%rdi)
    93d9:	83 e8 01             	sub    $0x1,%eax
    93dc:	7e df                	jle    93bd <_IO_new_fclose.cold+0x2e>
    93de:	e8 cd 06 02 00       	call   29ab0 <__lll_lock_wake_private>
    93e3:	eb d8                	jmp    93bd <_IO_new_fclose.cold+0x2e>
    93e5:	83 e8 01             	sub    $0x1,%eax
    93e8:	89 42 04             	mov    %eax,0x4(%rdx)
    93eb:	eb d0                	jmp    93bd <_IO_new_fclose.cold+0x2e>

00000000000093ed <_IO_fgets.cold>:
    93ed:	f6 43 01 80          	testb  $0x80,0x1(%rbx)
    93f1:	75 28                	jne    941b <_IO_fgets.cold+0x2e>
    93f3:	48 8b 93 88 00 00 00 	mov    0x88(%rbx),%rdx
    93fa:	80 3d 17 bf 0e 00 00 	cmpb   $0x0,0xebf17(%rip)        # f5318 <__libc_single_threaded>
    9401:	8b 42 04             	mov    0x4(%rdx),%eax
    9404:	74 1e                	je     9424 <_IO_fgets.cold+0x37>
    9406:	85 c0                	test   %eax,%eax
    9408:	75 39                	jne    9443 <_IO_fgets.cold+0x56>
    940a:	31 f6                	xor    %esi,%esi
    940c:	31 ff                	xor    %edi,%edi
    940e:	48 89 72 08          	mov    %rsi,0x8(%rdx)
    9412:	48 8b 83 88 00 00 00 	mov    0x88(%rbx),%rax
    9419:	89 38                	mov    %edi,(%rax)
    941b:	4c 89 e7             	mov    %r12,%rdi
    941e:	67 e8 9c 27 0a 00    	addr32 call abbc0 <_Unwind_Resume>
    9424:	85 c0                	test   %eax,%eax
    9426:	75 1b                	jne    9443 <_IO_fgets.cold+0x56>
    9428:	31 c9                	xor    %ecx,%ecx
    942a:	48 89 4a 08          	mov    %rcx,0x8(%rdx)
    942e:	48 8b bb 88 00 00 00 	mov    0x88(%rbx),%rdi
    9435:	87 07                	xchg   %eax,(%rdi)
    9437:	83 e8 01             	sub    $0x1,%eax
    943a:	7e df                	jle    941b <_IO_fgets.cold+0x2e>
    943c:	e8 6f 06 02 00       	call   29ab0 <__lll_lock_wake_private>
    9441:	eb d8                	jmp    941b <_IO_fgets.cold+0x2e>
    9443:	83 e8 01             	sub    $0x1,%eax
    9446:	89 42 04             	mov    %eax,0x4(%rdx)
    9449:	eb d0                	jmp    941b <_IO_fgets.cold+0x2e>

000000000000944b <_IO_ftell.cold>:
    944b:	f6 43 01 80          	testb  $0x80,0x1(%rbx)
    944f:	75 28                	jne    9479 <_IO_ftell.cold+0x2e>
    9451:	48 8b 93 88 00 00 00 	mov    0x88(%rbx),%rdx
    9458:	80 3d b9 be 0e 00 00 	cmpb   $0x0,0xebeb9(%rip)        # f5318 <__libc_single_threaded>
    945f:	8b 42 04             	mov    0x4(%rdx),%eax
    9462:	74 1e                	je     9482 <_IO_ftell.cold+0x37>
    9464:	85 c0                	test   %eax,%eax
    9466:	75 39                	jne    94a1 <_IO_ftell.cold+0x56>
    9468:	31 f6                	xor    %esi,%esi
    946a:	31 ff                	xor    %edi,%edi
    946c:	48 89 72 08          	mov    %rsi,0x8(%rdx)
    9470:	48 8b 83 88 00 00 00 	mov    0x88(%rbx),%rax
    9477:	89 38                	mov    %edi,(%rax)
    9479:	4c 89 f7             	mov    %r14,%rdi
    947c:	67 e8 3e 27 0a 00    	addr32 call abbc0 <_Unwind_Resume>
    9482:	85 c0                	test   %eax,%eax
    9484:	75 1b                	jne    94a1 <_IO_ftell.cold+0x56>
    9486:	31 c9                	xor    %ecx,%ecx
    9488:	48 89 4a 08          	mov    %rcx,0x8(%rdx)
    948c:	48 8b bb 88 00 00 00 	mov    0x88(%rbx),%rdi
    9493:	87 07                	xchg   %eax,(%rdi)
    9495:	83 e8 01             	sub    $0x1,%eax
    9498:	7e df                	jle    9479 <_IO_ftell.cold+0x2e>
    949a:	e8 11 06 02 00       	call   29ab0 <__lll_lock_wake_private>
    949f:	eb d8                	jmp    9479 <_IO_ftell.cold+0x2e>
    94a1:	83 e8 01             	sub    $0x1,%eax
    94a4:	89 42 04             	mov    %eax,0x4(%rdx)
    94a7:	eb d0                	jmp    9479 <_IO_ftell.cold+0x2e>

00000000000094a9 <_IO_fwrite.cold>:
    94a9:	f6 43 01 80          	testb  $0x80,0x1(%rbx)
    94ad:	75 28                	jne    94d7 <_IO_fwrite.cold+0x2e>
    94af:	48 8b 93 88 00 00 00 	mov    0x88(%rbx),%rdx
    94b6:	80 3d 5b be 0e 00 00 	cmpb   $0x0,0xebe5b(%rip)        # f5318 <__libc_single_threaded>
    94bd:	8b 42 04             	mov    0x4(%rdx),%eax
    94c0:	74 1e                	je     94e0 <_IO_fwrite.cold+0x37>
    94c2:	85 c0                	test   %eax,%eax
    94c4:	75 39                	jne    94ff <_IO_fwrite.cold+0x56>
    94c6:	31 f6                	xor    %esi,%esi
    94c8:	31 ff                	xor    %edi,%edi
    94ca:	48 89 72 08          	mov    %rsi,0x8(%rdx)
    94ce:	48 8b 83 88 00 00 00 	mov    0x88(%rbx),%rax
    94d5:	89 38                	mov    %edi,(%rax)
    94d7:	4c 89 f7             	mov    %r14,%rdi
    94da:	67 e8 e0 26 0a 00    	addr32 call abbc0 <_Unwind_Resume>
    94e0:	85 c0                	test   %eax,%eax
    94e2:	75 1b                	jne    94ff <_IO_fwrite.cold+0x56>
    94e4:	31 c9                	xor    %ecx,%ecx
    94e6:	48 89 4a 08          	mov    %rcx,0x8(%rdx)
    94ea:	48 8b bb 88 00 00 00 	mov    0x88(%rbx),%rdi
    94f1:	87 07                	xchg   %eax,(%rdi)
    94f3:	83 e8 01             	sub    $0x1,%eax
    94f6:	7e df                	jle    94d7 <_IO_fwrite.cold+0x2e>
    94f8:	e8 b3 05 02 00       	call   29ab0 <__lll_lock_wake_private>
    94fd:	eb d8                	jmp    94d7 <_IO_fwrite.cold+0x2e>
    94ff:	83 e8 01             	sub    $0x1,%eax
    9502:	89 42 04             	mov    %eax,0x4(%rdx)
    9505:	eb d0                	jmp    94d7 <_IO_fwrite.cold+0x2e>

0000000000009507 <_IO_puts.cold>:
    9507:	41 f6 44 24 01 80    	testb  $0x80,0x1(%r12)
    950d:	75 2a                	jne    9539 <_IO_puts.cold+0x32>
    950f:	49 8b 94 24 88 00 00 	mov    0x88(%r12),%rdx
    9516:	00 
    9517:	80 3d fa bd 0e 00 00 	cmpb   $0x0,0xebdfa(%rip)        # f5318 <__libc_single_threaded>
    951e:	8b 42 04             	mov    0x4(%rdx),%eax
    9521:	74 1f                	je     9542 <_IO_puts.cold+0x3b>
    9523:	85 c0                	test   %eax,%eax
    9525:	75 3b                	jne    9562 <_IO_puts.cold+0x5b>
    9527:	31 f6                	xor    %esi,%esi
    9529:	31 ff                	xor    %edi,%edi
    952b:	48 89 72 08          	mov    %rsi,0x8(%rdx)
    952f:	49 8b 84 24 88 00 00 	mov    0x88(%r12),%rax
    9536:	00 
    9537:	89 38                	mov    %edi,(%rax)
    9539:	48 89 df             	mov    %rbx,%rdi
    953c:	67 e8 7e 26 0a 00    	addr32 call abbc0 <_Unwind_Resume>
    9542:	85 c0                	test   %eax,%eax
    9544:	75 1c                	jne    9562 <_IO_puts.cold+0x5b>
    9546:	31 c9                	xor    %ecx,%ecx
    9548:	48 89 4a 08          	mov    %rcx,0x8(%rdx)
    954c:	49 8b bc 24 88 00 00 	mov    0x88(%r12),%rdi
    9553:	00 
    9554:	87 07                	xchg   %eax,(%rdi)
    9556:	83 e8 01             	sub    $0x1,%eax
    9559:	7e de                	jle    9539 <_IO_puts.cold+0x32>
    955b:	e8 50 05 02 00       	call   29ab0 <__lll_lock_wake_private>
    9560:	eb d7                	jmp    9539 <_IO_puts.cold+0x32>
    9562:	83 e8 01             	sub    $0x1,%eax
    9565:	89 42 04             	mov    %eax,0x4(%rdx)
    9568:	eb cf                	jmp    9539 <_IO_puts.cold+0x32>

000000000000956a <_IO_seekoff_unlocked.cold>:
    956a:	e8 4f fc ff ff       	call   91be <abort>

000000000000956f <_IO_seekoff.cold>:
    956f:	f6 43 01 80          	testb  $0x80,0x1(%rbx)
    9573:	75 28                	jne    959d <_IO_seekoff.cold+0x2e>
    9575:	48 8b 93 88 00 00 00 	mov    0x88(%rbx),%rdx
    957c:	80 3d 95 bd 0e 00 00 	cmpb   $0x0,0xebd95(%rip)        # f5318 <__libc_single_threaded>
    9583:	8b 42 04             	mov    0x4(%rdx),%eax
    9586:	74 1e                	je     95a6 <_IO_seekoff.cold+0x37>
    9588:	85 c0                	test   %eax,%eax
    958a:	75 39                	jne    95c5 <_IO_seekoff.cold+0x56>
    958c:	31 f6                	xor    %esi,%esi
    958e:	31 ff                	xor    %edi,%edi
    9590:	48 89 72 08          	mov    %rsi,0x8(%rdx)
    9594:	48 8b 83 88 00 00 00 	mov    0x88(%rbx),%rax
    959b:	89 38                	mov    %edi,(%rax)
    959d:	4c 89 f7             	mov    %r14,%rdi
    95a0:	67 e8 1a 26 0a 00    	addr32 call abbc0 <_Unwind_Resume>
    95a6:	85 c0                	test   %eax,%eax
    95a8:	75 1b                	jne    95c5 <_IO_seekoff.cold+0x56>
    95aa:	31 c9                	xor    %ecx,%ecx
    95ac:	48 89 4a 08          	mov    %rcx,0x8(%rdx)
    95b0:	48 8b bb 88 00 00 00 	mov    0x88(%rbx),%rdi
    95b7:	87 07                	xchg   %eax,(%rdi)
    95b9:	83 e8 01             	sub    $0x1,%eax
    95bc:	7e df                	jle    959d <_IO_seekoff.cold+0x2e>
    95be:	e8 ed 04 02 00       	call   29ab0 <__lll_lock_wake_private>
    95c3:	eb d8                	jmp    959d <_IO_seekoff.cold+0x2e>
    95c5:	83 e8 01             	sub    $0x1,%eax
    95c8:	89 42 04             	mov    %eax,0x4(%rdx)
    95cb:	eb d0                	jmp    959d <_IO_seekoff.cold+0x2e>

00000000000095cd <putchar.cold>:
    95cd:	f6 43 01 80          	testb  $0x80,0x1(%rbx)
    95d1:	75 28                	jne    95fb <putchar.cold+0x2e>
    95d3:	48 8b 93 88 00 00 00 	mov    0x88(%rbx),%rdx
    95da:	80 3d 37 bd 0e 00 00 	cmpb   $0x0,0xebd37(%rip)        # f5318 <__libc_single_threaded>
    95e1:	8b 42 04             	mov    0x4(%rdx),%eax
    95e4:	74 1e                	je     9604 <putchar.cold+0x37>
    95e6:	85 c0                	test   %eax,%eax
    95e8:	75 39                	jne    9623 <putchar.cold+0x56>
    95ea:	31 f6                	xor    %esi,%esi
    95ec:	31 ff                	xor    %edi,%edi
    95ee:	48 89 72 08          	mov    %rsi,0x8(%rdx)
    95f2:	48 8b 83 88 00 00 00 	mov    0x88(%rbx),%rax
    95f9:	89 38                	mov    %edi,(%rax)
    95fb:	4c 89 f7             	mov    %r14,%rdi
    95fe:	67 e8 bc 25 0a 00    	addr32 call abbc0 <_Unwind_Resume>
    9604:	85 c0                	test   %eax,%eax
    9606:	75 1b                	jne    9623 <putchar.cold+0x56>
    9608:	31 c9                	xor    %ecx,%ecx
    960a:	48 89 4a 08          	mov    %rcx,0x8(%rdx)
    960e:	48 8b bb 88 00 00 00 	mov    0x88(%rbx),%rdi
    9615:	87 07                	xchg   %eax,(%rdi)
    9617:	83 e8 01             	sub    $0x1,%eax
    961a:	7e df                	jle    95fb <putchar.cold+0x2e>
    961c:	e8 8f 04 02 00       	call   29ab0 <__lll_lock_wake_private>
    9621:	eb d8                	jmp    95fb <putchar.cold+0x2e>
    9623:	83 e8 01             	sub    $0x1,%eax
    9626:	89 42 04             	mov    %eax,0x4(%rdx)
    9629:	eb d0                	jmp    95fb <putchar.cold+0x2e>

000000000000962b <fseek.cold>:
    962b:	f6 43 01 80          	testb  $0x80,0x1(%rbx)
    962f:	75 28                	jne    9659 <fseek.cold+0x2e>
    9631:	48 8b 93 88 00 00 00 	mov    0x88(%rbx),%rdx
    9638:	80 3d d9 bc 0e 00 00 	cmpb   $0x0,0xebcd9(%rip)        # f5318 <__libc_single_threaded>
    963f:	8b 42 04             	mov    0x4(%rdx),%eax
    9642:	74 1e                	je     9662 <fseek.cold+0x37>
    9644:	85 c0                	test   %eax,%eax
    9646:	75 39                	jne    9681 <fseek.cold+0x56>
    9648:	31 f6                	xor    %esi,%esi
    964a:	31 ff                	xor    %edi,%edi
    964c:	48 89 72 08          	mov    %rsi,0x8(%rdx)
    9650:	48 8b 83 88 00 00 00 	mov    0x88(%rbx),%rax
    9657:	89 38                	mov    %edi,(%rax)
    9659:	4c 89 f7             	mov    %r14,%rdi
    965c:	67 e8 5e 25 0a 00    	addr32 call abbc0 <_Unwind_Resume>
    9662:	85 c0                	test   %eax,%eax
    9664:	75 1b                	jne    9681 <fseek.cold+0x56>
    9666:	31 c9                	xor    %ecx,%ecx
    9668:	48 89 4a 08          	mov    %rcx,0x8(%rdx)
    966c:	48 8b bb 88 00 00 00 	mov    0x88(%rbx),%rdi
    9673:	87 07                	xchg   %eax,(%rdi)
    9675:	83 e8 01             	sub    $0x1,%eax
    9678:	7e df                	jle    9659 <fseek.cold+0x2e>
    967a:	e8 31 04 02 00       	call   29ab0 <__lll_lock_wake_private>
    967f:	eb d8                	jmp    9659 <fseek.cold+0x2e>
    9681:	83 e8 01             	sub    $0x1,%eax
    9684:	89 42 04             	mov    %eax,0x4(%rdx)
    9687:	eb d0                	jmp    9659 <fseek.cold+0x2e>

0000000000009689 <__libc_message_impl.cold>:
    9689:	e8 30 fb ff ff       	call   91be <abort>

000000000000968e <_IO_new_file_underflow.cold>:
    968e:	41 f6 45 01 80       	testb  $0x80,0x1(%r13)
    9693:	75 28                	jne    96bd <_IO_new_file_underflow.cold+0x2f>
    9695:	49 8b 95 88 00 00 00 	mov    0x88(%r13),%rdx
    969c:	80 3d 75 bc 0e 00 00 	cmpb   $0x0,0xebc75(%rip)        # f5318 <__libc_single_threaded>
    96a3:	8b 42 04             	mov    0x4(%rdx),%eax
    96a6:	74 1e                	je     96c6 <_IO_new_file_underflow.cold+0x38>
    96a8:	85 c0                	test   %eax,%eax
    96aa:	75 39                	jne    96e5 <_IO_new_file_underflow.cold+0x57>
    96ac:	31 f6                	xor    %esi,%esi
    96ae:	31 ff                	xor    %edi,%edi
    96b0:	48 89 72 08          	mov    %rsi,0x8(%rdx)
    96b4:	49 8b 85 88 00 00 00 	mov    0x88(%r13),%rax
    96bb:	89 38                	mov    %edi,(%rax)
    96bd:	48 89 df             	mov    %rbx,%rdi
    96c0:	67 e8 fa 24 0a 00    	addr32 call abbc0 <_Unwind_Resume>
    96c6:	85 c0                	test   %eax,%eax
    96c8:	75 1b                	jne    96e5 <_IO_new_file_underflow.cold+0x57>
    96ca:	31 c9                	xor    %ecx,%ecx
    96cc:	48 89 4a 08          	mov    %rcx,0x8(%rdx)
    96d0:	49 8b bd 88 00 00 00 	mov    0x88(%r13),%rdi
    96d7:	87 07                	xchg   %eax,(%rdi)
    96d9:	83 e8 01             	sub    $0x1,%eax
    96dc:	7e df                	jle    96bd <_IO_new_file_underflow.cold+0x2f>
    96de:	e8 cd 03 02 00       	call   29ab0 <__lll_lock_wake_private>
    96e3:	eb d8                	jmp    96bd <_IO_new_file_underflow.cold+0x2f>
    96e5:	83 e8 01             	sub    $0x1,%eax
    96e8:	89 42 04             	mov    %eax,0x4(%rdx)
    96eb:	eb d0                	jmp    96bd <_IO_new_file_underflow.cold+0x2f>

00000000000096ed <add_name_to_object.isra.0.cold>:
    96ed:	48 8d 0d 8c 19 0b 00 	lea    0xb198c(%rip),%rcx        # bb080 <__PRETTY_FUNCTION__.6>
    96f4:	ba ac 01 00 00       	mov    $0x1ac,%edx
    96f9:	48 8d 35 32 93 0a 00 	lea    0xa9332(%rip),%rsi        # b2a32 <__PRETTY_FUNCTION__.20+0x2c7>
    9700:	48 8d 3d 35 93 0a 00 	lea    0xa9335(%rip),%rdi        # b2a3c <__PRETTY_FUNCTION__.20+0x2d1>
    9707:	e8 94 5a 00 00       	call   f1a0 <__libc_assert_fail>

000000000000970c <expand_dynamic_string_token.cold>:
    970c:	48 8d 0d 8d 19 0b 00 	lea    0xb198d(%rip),%rcx        # bb0a0 <__PRETTY_FUNCTION__.8>
    9713:	ba 88 01 00 00       	mov    $0x188,%edx
    9718:	48 8d 35 13 93 0a 00 	lea    0xa9313(%rip),%rsi        # b2a32 <__PRETTY_FUNCTION__.20+0x2c7>
    971f:	48 8d 3d 9a e7 0a 00 	lea    0xae79a(%rip),%rdi        # b7ec0 <__PRETTY_FUNCTION__.0+0x168>
    9726:	e8 75 5a 00 00       	call   f1a0 <__libc_assert_fail>

000000000000972b <_dl_init_paths.cold>:
    972b:	48 8d 0d b6 ec 0a 00 	lea    0xaecb6(%rip),%rcx        # b83e8 <__PRETTY_FUNCTION__.9>
    9732:	ba f9 02 00 00       	mov    $0x2f9,%edx
    9737:	48 8d 35 f4 92 0a 00 	lea    0xa92f4(%rip),%rsi        # b2a32 <__PRETTY_FUNCTION__.20+0x2c7>
    973e:	48 8d 3d 30 93 0a 00 	lea    0xa9330(%rip),%rdi        # b2a75 <__PRETTY_FUNCTION__.20+0x30a>
    9745:	e8 56 5a 00 00       	call   f1a0 <__libc_assert_fail>

000000000000974a <_dl_map_object_from_fd.constprop.0.cold>:
    974a:	48 8d 0d cf 18 0b 00 	lea    0xb18cf(%rip),%rcx        # bb020 <__PRETTY_FUNCTION__.0>
    9751:	ba a0 03 00 00       	mov    $0x3a0,%edx
    9756:	48 8d 35 d5 92 0a 00 	lea    0xa92d5(%rip),%rsi        # b2a32 <__PRETTY_FUNCTION__.20+0x2c7>
    975d:	48 8d 3d c1 93 0a 00 	lea    0xa93c1(%rip),%rdi        # b2b25 <__PRETTY_FUNCTION__.20+0x3ba>
    9764:	e8 37 5a 00 00       	call   f1a0 <__libc_assert_fail>
    9769:	48 8d 0d f0 18 0b 00 	lea    0xb18f0(%rip),%rcx        # bb060 <__PRETTY_FUNCTION__.2>
    9770:	ba 5d 05 00 00       	mov    $0x55d,%edx
    9775:	48 8d 35 b6 92 0a 00 	lea    0xa92b6(%rip),%rsi        # b2a32 <__PRETTY_FUNCTION__.20+0x2c7>
    977c:	48 8d 3d 15 eb 0a 00 	lea    0xaeb15(%rip),%rdi        # b8298 <__PRETTY_FUNCTION__.0+0x540>
    9783:	e8 18 5a 00 00       	call   f1a0 <__libc_assert_fail>
    9788:	48 8d 0d d1 18 0b 00 	lea    0xb18d1(%rip),%rcx        # bb060 <__PRETTY_FUNCTION__.2>
    978f:	ba bf 04 00 00       	mov    $0x4bf,%edx
    9794:	48 8d 35 97 92 0a 00 	lea    0xa9297(%rip),%rsi        # b2a32 <__PRETTY_FUNCTION__.20+0x2c7>
    979b:	48 8d 3d e6 e9 0a 00 	lea    0xae9e6(%rip),%rdi        # b8188 <__PRETTY_FUNCTION__.0+0x430>
    97a2:	e8 f9 59 00 00       	call   f1a0 <__libc_assert_fail>
    97a7:	48 8d 0d b2 18 0b 00 	lea    0xb18b2(%rip),%rcx        # bb060 <__PRETTY_FUNCTION__.2>
    97ae:	ba c5 03 00 00       	mov    $0x3c5,%edx
    97b3:	48 8d 35 78 92 0a 00 	lea    0xa9278(%rip),%rsi        # b2a32 <__PRETTY_FUNCTION__.20+0x2c7>
    97ba:	48 8d 3d 2e 93 0a 00 	lea    0xa932e(%rip),%rdi        # b2aef <__PRETTY_FUNCTION__.20+0x384>
    97c1:	e8 da 59 00 00       	call   f1a0 <__libc_assert_fail>
    97c6:	48 8d 0d 73 18 0b 00 	lea    0xb1873(%rip),%rcx        # bb040 <__PRETTY_FUNCTION__.1>
    97cd:	ba 82 00 00 00       	mov    $0x82,%edx
    97d2:	48 8d 35 2f 93 0a 00 	lea    0xa932f(%rip),%rsi        # b2b08 <__PRETTY_FUNCTION__.20+0x39d>
    97d9:	48 8d 3d 40 ea 0a 00 	lea    0xaea40(%rip),%rdi        # b8220 <__PRETTY_FUNCTION__.0+0x4c8>
    97e0:	e8 bb 59 00 00       	call   f1a0 <__libc_assert_fail>
    97e5:	48 8d 0d 54 18 0b 00 	lea    0xb1854(%rip),%rcx        # bb040 <__PRETTY_FUNCTION__.1>
    97ec:	ba 7b 00 00 00       	mov    $0x7b,%edx
    97f1:	48 8d 35 10 93 0a 00 	lea    0xa9310(%rip),%rsi        # b2b08 <__PRETTY_FUNCTION__.20+0x39d>
    97f8:	48 8d 3d e9 e9 0a 00 	lea    0xae9e9(%rip),%rdi        # b81e8 <__PRETTY_FUNCTION__.0+0x490>
    97ff:	e8 9c 59 00 00       	call   f1a0 <__libc_assert_fail>
    9804:	48 8d 0d 35 18 0b 00 	lea    0xb1835(%rip),%rcx        # bb040 <__PRETTY_FUNCTION__.1>
    980b:	ba 73 00 00 00       	mov    $0x73,%edx
    9810:	48 8d 35 f1 92 0a 00 	lea    0xa92f1(%rip),%rsi        # b2b08 <__PRETTY_FUNCTION__.20+0x39d>
    9817:	48 8d 3d a2 e9 0a 00 	lea    0xae9a2(%rip),%rdi        # b81c0 <__PRETTY_FUNCTION__.0+0x468>
    981e:	e8 7d 59 00 00       	call   f1a0 <__libc_assert_fail>

0000000000009823 <_dl_lookup_map.cold>:
    9823:	48 8d 0d ae eb 0a 00 	lea    0xaebae(%rip),%rcx        # b83d8 <__PRETTY_FUNCTION__.7>
    982a:	ba 66 07 00 00       	mov    $0x766,%edx
    982f:	48 8d 35 fc 91 0a 00 	lea    0xa91fc(%rip),%rsi        # b2a32 <__PRETTY_FUNCTION__.20+0x2c7>
    9836:	48 8d 3d fd 92 0a 00 	lea    0xa92fd(%rip),%rdi        # b2b3a <__PRETTY_FUNCTION__.20+0x3cf>
    983d:	e8 5e 59 00 00       	call   f1a0 <__libc_assert_fail>
    9842:	48 8d 0d 8f eb 0a 00 	lea    0xaeb8f(%rip),%rcx        # b83d8 <__PRETTY_FUNCTION__.7>
    9849:	ba 67 07 00 00       	mov    $0x767,%edx
    984e:	48 8d 35 dd 91 0a 00 	lea    0xa91dd(%rip),%rsi        # b2a32 <__PRETTY_FUNCTION__.20+0x2c7>
    9855:	48 8d 3d e8 92 0a 00 	lea    0xa92e8(%rip),%rdi        # b2b44 <__PRETTY_FUNCTION__.20+0x3d9>
    985c:	e8 3f 59 00 00       	call   f1a0 <__libc_assert_fail>

0000000000009861 <_dl_relocate_static_pie.cold>:
    9861:	48 8d 0d d8 17 0b 00 	lea    0xb17d8(%rip),%rcx        # bb040 <__PRETTY_FUNCTION__.1>
    9868:	ba 82 00 00 00       	mov    $0x82,%edx
    986d:	48 8d 35 94 92 0a 00 	lea    0xa9294(%rip),%rsi        # b2b08 <__PRETTY_FUNCTION__.20+0x39d>
    9874:	48 8d 3d a5 e9 0a 00 	lea    0xae9a5(%rip),%rdi        # b8220 <__PRETTY_FUNCTION__.0+0x4c8>
    987b:	e8 20 59 00 00       	call   f1a0 <__libc_assert_fail>
    9880:	48 8d 0d b9 17 0b 00 	lea    0xb17b9(%rip),%rcx        # bb040 <__PRETTY_FUNCTION__.1>
    9887:	ba 7b 00 00 00       	mov    $0x7b,%edx
    988c:	48 8d 35 75 92 0a 00 	lea    0xa9275(%rip),%rsi        # b2b08 <__PRETTY_FUNCTION__.20+0x39d>
    9893:	48 8d 3d 4e e9 0a 00 	lea    0xae94e(%rip),%rdi        # b81e8 <__PRETTY_FUNCTION__.0+0x490>
    989a:	e8 01 59 00 00       	call   f1a0 <__libc_assert_fail>
    989f:	48 8d 0d 9a 17 0b 00 	lea    0xb179a(%rip),%rcx        # bb040 <__PRETTY_FUNCTION__.1>
    98a6:	ba 73 00 00 00       	mov    $0x73,%edx
    98ab:	48 8d 35 56 92 0a 00 	lea    0xa9256(%rip),%rsi        # b2b08 <__PRETTY_FUNCTION__.20+0x39d>
    98b2:	48 8d 3d 07 e9 0a 00 	lea    0xae907(%rip),%rdi        # b81c0 <__PRETTY_FUNCTION__.0+0x468>
    98b9:	e8 e2 58 00 00       	call   f1a0 <__libc_assert_fail>
    98be:	48 8d 0d 9b 18 0b 00 	lea    0xb189b(%rip),%rcx        # bb160 <__PRETTY_FUNCTION__.0>
    98c5:	ba f2 01 00 00       	mov    $0x1f2,%edx
    98ca:	48 8d 35 2f ef 0a 00 	lea    0xaef2f(%rip),%rsi        # b8800 <__PRETTY_FUNCTION__.0+0x370>
    98d1:	48 8d 3d 48 ef 0a 00 	lea    0xaef48(%rip),%rdi        # b8820 <__PRETTY_FUNCTION__.0+0x390>
    98d8:	e8 c3 58 00 00       	call   f1a0 <__libc_assert_fail>
    98dd:	48 8d 0d 5c 17 0b 00 	lea    0xb175c(%rip),%rcx        # bb040 <__PRETTY_FUNCTION__.1>
    98e4:	ba 86 00 00 00       	mov    $0x86,%edx
    98e9:	48 8d 35 18 92 0a 00 	lea    0xa9218(%rip),%rsi        # b2b08 <__PRETTY_FUNCTION__.20+0x39d>
    98f0:	48 8d 3d 0c 94 0a 00 	lea    0xa940c(%rip),%rdi        # b2d03 <__PRETTY_FUNCTION__.20+0x598>
    98f7:	e8 a4 58 00 00       	call   f1a0 <__libc_assert_fail>
    98fc:	48 8d 0d 3d 17 0b 00 	lea    0xb173d(%rip),%rcx        # bb040 <__PRETTY_FUNCTION__.1>
    9903:	ba 85 00 00 00       	mov    $0x85,%edx
    9908:	48 8d 35 f9 91 0a 00 	lea    0xa91f9(%rip),%rsi        # b2b08 <__PRETTY_FUNCTION__.20+0x39d>
    990f:	48 8d 3d d4 93 0a 00 	lea    0xa93d4(%rip),%rdi        # b2cea <__PRETTY_FUNCTION__.20+0x57f>
    9916:	e8 85 58 00 00       	call   f1a0 <__libc_assert_fail>

000000000000991b <_dl_aux_init.cold>:
    991b:	48 8d 0d 76 ef 0a 00 	lea    0xaef76(%rip),%rcx        # b8898 <__PRETTY_FUNCTION__.4>
    9922:	ba 00 01 00 00       	mov    $0x100,%edx
    9927:	48 8d 35 ec 93 0a 00 	lea    0xa93ec(%rip),%rsi        # b2d1a <__PRETTY_FUNCTION__.20+0x5af>
    992e:	48 8d 3d 23 ef 0a 00 	lea    0xaef23(%rip),%rdi        # b8858 <__PRETTY_FUNCTION__.0+0x3c8>
    9935:	e8 66 58 00 00       	call   f1a0 <__libc_assert_fail>

000000000000993a <_dl_non_dynamic_init.cold>:
    993a:	48 8d 0d ff 16 0b 00 	lea    0xb16ff(%rip),%rcx        # bb040 <__PRETTY_FUNCTION__.1>
    9941:	ba 7b 00 00 00       	mov    $0x7b,%edx
    9946:	48 8d 35 bb 91 0a 00 	lea    0xa91bb(%rip),%rsi        # b2b08 <__PRETTY_FUNCTION__.20+0x39d>
    994d:	48 8d 3d 94 e8 0a 00 	lea    0xae894(%rip),%rdi        # b81e8 <__PRETTY_FUNCTION__.0+0x490>
    9954:	e8 47 58 00 00       	call   f1a0 <__libc_assert_fail>
    9959:	48 8d 0d e0 16 0b 00 	lea    0xb16e0(%rip),%rcx        # bb040 <__PRETTY_FUNCTION__.1>
    9960:	ba 82 00 00 00       	mov    $0x82,%edx
    9965:	48 8d 35 9c 91 0a 00 	lea    0xa919c(%rip),%rsi        # b2b08 <__PRETTY_FUNCTION__.20+0x39d>
    996c:	48 8d 3d ad e8 0a 00 	lea    0xae8ad(%rip),%rdi        # b8220 <__PRETTY_FUNCTION__.0+0x4c8>
    9973:	e8 28 58 00 00       	call   f1a0 <__libc_assert_fail>
    9978:	48 8d 0d 09 ef 0a 00 	lea    0xaef09(%rip),%rcx        # b8888 <__PRETTY_FUNCTION__.2>
    997f:	ba 39 00 00 00       	mov    $0x39,%edx
    9984:	48 8d 35 9c 93 0a 00 	lea    0xa939c(%rip),%rsi        # b2d27 <__PRETTY_FUNCTION__.20+0x5bc>
    998b:	48 8d 3d a2 93 0a 00 	lea    0xa93a2(%rip),%rdi        # b2d34 <__PRETTY_FUNCTION__.20+0x5c9>
    9992:	e8 09 58 00 00       	call   f1a0 <__libc_assert_fail>
    9997:	48 8d 0d a2 16 0b 00 	lea    0xb16a2(%rip),%rcx        # bb040 <__PRETTY_FUNCTION__.1>
    999e:	ba 73 00 00 00       	mov    $0x73,%edx
    99a3:	48 8d 35 5e 91 0a 00 	lea    0xa915e(%rip),%rsi        # b2b08 <__PRETTY_FUNCTION__.20+0x39d>
    99aa:	48 8d 3d 0f e8 0a 00 	lea    0xae80f(%rip),%rdi        # b81c0 <__PRETTY_FUNCTION__.0+0x468>
    99b1:	e8 ea 57 00 00       	call   f1a0 <__libc_assert_fail>

00000000000099b6 <_dl_tunable_set_hwcaps.cold>:
    99b6:	55                   	push   %rbp
    99b7:	48 8d 0d c2 17 0b 00 	lea    0xb17c2(%rip),%rcx        # bb180 <__PRETTY_FUNCTION__.0>
    99be:	ba 56 00 00 00       	mov    $0x56,%edx
    99c3:	48 8d 35 de ee 0a 00 	lea    0xaeede(%rip),%rsi        # b88a8 <__PRETTY_FUNCTION__.4+0x10>
    99ca:	48 8d 3d 2a 94 0a 00 	lea    0xa942a(%rip),%rdi        # b2dfb <__PRETTY_FUNCTION__.20+0x690>
    99d1:	48 89 e5             	mov    %rsp,%rbp
    99d4:	e8 c7 57 00 00       	call   f1a0 <__libc_assert_fail>

00000000000099d9 <_dl_start>:
    99d9:	f3 0f 1e fa          	endbr64 
    99dd:	55                   	push   %rbp
    99de:	48 89 e5             	mov    %rsp,%rbp
    99e1:	e8 d8 f7 ff ff       	call   91be <abort>

00000000000099e6 <__gconv_transform_internal_ucs4.cold>:
    99e6:	48 8b 45 c8          	mov    -0x38(%rbp),%rax
    99ea:	64 48 2b 04 25 28 00 	sub    %fs:0x28,%rax
    99f1:	00 00 
    99f3:	75 4d                	jne    9a42 <__gconv_transform_internal_ucs4.cold+0x5c>
    99f5:	48 8d 0d 64 24 0b 00 	lea    0xb2464(%rip),%rcx        # bbe60 <__PRETTY_FUNCTION__.20>
    99fc:	ba 87 02 00 00       	mov    $0x287,%edx
    9a01:	48 8d 35 0d 97 0a 00 	lea    0xa970d(%rip),%rsi        # b3115 <gconv_module_ext+0x14>
    9a08:	48 8d 3d 29 ef 0a 00 	lea    0xaef29(%rip),%rdi        # b8938 <gconv_conf_filename+0x58>
    9a0f:	e8 8c 57 00 00       	call   f1a0 <__libc_assert_fail>
    9a14:	48 8d 0d 45 24 0b 00 	lea    0xb2445(%rip),%rcx        # bbe60 <__PRETTY_FUNCTION__.20>
    9a1b:	ba 53 02 00 00       	mov    $0x253,%edx
    9a20:	48 8d 35 ee 96 0a 00 	lea    0xa96ee(%rip),%rsi        # b3115 <gconv_module_ext+0x14>
    9a27:	48 8d 3d ea ee 0a 00 	lea    0xaeeea(%rip),%rdi        # b8918 <gconv_conf_filename+0x38>
    9a2e:	e8 6d 57 00 00       	call   f1a0 <__libc_assert_fail>
    9a33:	48 8b 45 c8          	mov    -0x38(%rbp),%rax
    9a37:	64 48 2b 04 25 28 00 	sub    %fs:0x28,%rax
    9a3e:	00 00 
    9a40:	74 62                	je     9aa4 <__gconv_transform_internal_ucs4.cold+0xbe>
    9a42:	67 e8 28 c6 03 00    	addr32 call 46070 <__stack_chk_fail>
    9a48:	48 8b 45 c8          	mov    -0x38(%rbp),%rax
    9a4c:	64 48 2b 04 25 28 00 	sub    %fs:0x28,%rax
    9a53:	00 00 
    9a55:	75 eb                	jne    9a42 <__gconv_transform_internal_ucs4.cold+0x5c>
    9a57:	48 8d 0d 02 24 0b 00 	lea    0xb2402(%rip),%rcx        # bbe60 <__PRETTY_FUNCTION__.20>
    9a5e:	ba d3 01 00 00       	mov    $0x1d3,%edx
    9a63:	48 8d 35 ab 96 0a 00 	lea    0xa96ab(%rip),%rsi        # b3115 <gconv_module_ext+0x14>
    9a6a:	48 8d 3d b8 96 0a 00 	lea    0xa96b8(%rip),%rdi        # b3129 <gconv_module_ext+0x28>
    9a71:	e8 2a 57 00 00       	call   f1a0 <__libc_assert_fail>
    9a76:	48 8b 45 c8          	mov    -0x38(%rbp),%rax
    9a7a:	64 48 2b 04 25 28 00 	sub    %fs:0x28,%rax
    9a81:	00 00 
    9a83:	75 bd                	jne    9a42 <__gconv_transform_internal_ucs4.cold+0x5c>
    9a85:	48 8d 0d d4 23 0b 00 	lea    0xb23d4(%rip),%rcx        # bbe60 <__PRETTY_FUNCTION__.20>
    9a8c:	ba 5e 01 00 00       	mov    $0x15e,%edx
    9a91:	48 8d 35 7d 96 0a 00 	lea    0xa967d(%rip),%rsi        # b3115 <gconv_module_ext+0x14>
    9a98:	48 8d 3d 8a 96 0a 00 	lea    0xa968a(%rip),%rdi        # b3129 <gconv_module_ext+0x28>
    9a9f:	e8 fc 56 00 00       	call   f1a0 <__libc_assert_fail>
    9aa4:	48 8d 0d b5 23 0b 00 	lea    0xb23b5(%rip),%rcx        # bbe60 <__PRETTY_FUNCTION__.20>
    9aab:	ba 52 02 00 00       	mov    $0x252,%edx
    9ab0:	48 8d 35 5e 96 0a 00 	lea    0xa965e(%rip),%rsi        # b3115 <gconv_module_ext+0x14>
    9ab7:	48 8d 3d 7f 96 0a 00 	lea    0xa967f(%rip),%rdi        # b313d <gconv_module_ext+0x3c>
    9abe:	e8 dd 56 00 00       	call   f1a0 <__libc_assert_fail>

0000000000009ac3 <__gconv_transform_ucs4_internal.cold>:
    9ac3:	48 8b 45 c8          	mov    -0x38(%rbp),%rax
    9ac7:	64 48 2b 04 25 28 00 	sub    %fs:0x28,%rax
    9ace:	00 00 
    9ad0:	75 4d                	jne    9b1f <__gconv_transform_ucs4_internal.cold+0x5c>
    9ad2:	48 8d 0d 67 23 0b 00 	lea    0xb2367(%rip),%rcx        # bbe40 <__PRETTY_FUNCTION__.19>
    9ad9:	ba 87 02 00 00       	mov    $0x287,%edx
    9ade:	48 8d 35 30 96 0a 00 	lea    0xa9630(%rip),%rsi        # b3115 <gconv_module_ext+0x14>
    9ae5:	48 8d 3d 4c ee 0a 00 	lea    0xaee4c(%rip),%rdi        # b8938 <gconv_conf_filename+0x58>
    9aec:	e8 af 56 00 00       	call   f1a0 <__libc_assert_fail>
    9af1:	48 8d 0d 48 23 0b 00 	lea    0xb2348(%rip),%rcx        # bbe40 <__PRETTY_FUNCTION__.19>
    9af8:	ba 53 02 00 00       	mov    $0x253,%edx
    9afd:	48 8d 35 11 96 0a 00 	lea    0xa9611(%rip),%rsi        # b3115 <gconv_module_ext+0x14>
    9b04:	48 8d 3d 0d ee 0a 00 	lea    0xaee0d(%rip),%rdi        # b8918 <gconv_conf_filename+0x38>
    9b0b:	e8 90 56 00 00       	call   f1a0 <__libc_assert_fail>
    9b10:	48 8b 45 c8          	mov    -0x38(%rbp),%rax
    9b14:	64 48 2b 04 25 28 00 	sub    %fs:0x28,%rax
    9b1b:	00 00 
    9b1d:	74 06                	je     9b25 <__gconv_transform_ucs4_internal.cold+0x62>
    9b1f:	67 e8 4b c5 03 00    	addr32 call 46070 <__stack_chk_fail>
    9b25:	48 8d 0d 14 23 0b 00 	lea    0xb2314(%rip),%rcx        # bbe40 <__PRETTY_FUNCTION__.19>
    9b2c:	ba 52 02 00 00       	mov    $0x252,%edx
    9b31:	48 8d 35 dd 95 0a 00 	lea    0xa95dd(%rip),%rsi        # b3115 <gconv_module_ext+0x14>
    9b38:	48 8d 3d fe 95 0a 00 	lea    0xa95fe(%rip),%rdi        # b313d <gconv_module_ext+0x3c>
    9b3f:	e8 5c 56 00 00       	call   f1a0 <__libc_assert_fail>
    9b44:	48 8b 45 c8          	mov    -0x38(%rbp),%rax
    9b48:	64 48 2b 04 25 28 00 	sub    %fs:0x28,%rax
    9b4f:	00 00 
    9b51:	75 cc                	jne    9b1f <__gconv_transform_ucs4_internal.cold+0x5c>
    9b53:	48 8d 0d e6 22 0b 00 	lea    0xb22e6(%rip),%rcx        # bbe40 <__PRETTY_FUNCTION__.19>
    9b5a:	ba 5e 01 00 00       	mov    $0x15e,%edx
    9b5f:	48 8d 35 af 95 0a 00 	lea    0xa95af(%rip),%rsi        # b3115 <gconv_module_ext+0x14>
    9b66:	48 8d 3d bc 95 0a 00 	lea    0xa95bc(%rip),%rdi        # b3129 <gconv_module_ext+0x28>
    9b6d:	e8 2e 56 00 00       	call   f1a0 <__libc_assert_fail>
    9b72:	48 8b 45 c8          	mov    -0x38(%rbp),%rax
    9b76:	64 48 2b 04 25 28 00 	sub    %fs:0x28,%rax
    9b7d:	00 00 
    9b7f:	75 9e                	jne    9b1f <__gconv_transform_ucs4_internal.cold+0x5c>
    9b81:	48 8d 0d b8 22 0b 00 	lea    0xb22b8(%rip),%rcx        # bbe40 <__PRETTY_FUNCTION__.19>
    9b88:	ba d3 01 00 00       	mov    $0x1d3,%edx
    9b8d:	48 8d 35 81 95 0a 00 	lea    0xa9581(%rip),%rsi        # b3115 <gconv_module_ext+0x14>
    9b94:	48 8d 3d 8e 95 0a 00 	lea    0xa958e(%rip),%rdi        # b3129 <gconv_module_ext+0x28>
    9b9b:	e8 00 56 00 00       	call   f1a0 <__libc_assert_fail>

0000000000009ba0 <__gconv_transform_internal_ucs4le.cold>:
    9ba0:	48 8b 45 c8          	mov    -0x38(%rbp),%rax
    9ba4:	64 48 2b 04 25 28 00 	sub    %fs:0x28,%rax
    9bab:	00 00 
    9bad:	75 5c                	jne    9c0b <__gconv_transform_internal_ucs4le.cold+0x6b>
    9baf:	48 8d 0d 4a 22 0b 00 	lea    0xb224a(%rip),%rcx        # bbe00 <__PRETTY_FUNCTION__.18>
    9bb6:	ba 87 02 00 00       	mov    $0x287,%edx
    9bbb:	48 8d 35 53 95 0a 00 	lea    0xa9553(%rip),%rsi        # b3115 <gconv_module_ext+0x14>
    9bc2:	48 8d 3d 6f ed 0a 00 	lea    0xaed6f(%rip),%rdi        # b8938 <gconv_conf_filename+0x58>
    9bc9:	e8 d2 55 00 00       	call   f1a0 <__libc_assert_fail>
    9bce:	48 8b 45 c8          	mov    -0x38(%rbp),%rax
    9bd2:	64 48 2b 04 25 28 00 	sub    %fs:0x28,%rax
    9bd9:	00 00 
    9bdb:	75 2e                	jne    9c0b <__gconv_transform_internal_ucs4le.cold+0x6b>
    9bdd:	48 8d 0d 1c 22 0b 00 	lea    0xb221c(%rip),%rcx        # bbe00 <__PRETTY_FUNCTION__.18>
    9be4:	ba d3 01 00 00       	mov    $0x1d3,%edx
    9be9:	48 8d 35 25 95 0a 00 	lea    0xa9525(%rip),%rsi        # b3115 <gconv_module_ext+0x14>
    9bf0:	48 8d 3d 32 95 0a 00 	lea    0xa9532(%rip),%rdi        # b3129 <gconv_module_ext+0x28>
    9bf7:	e8 a4 55 00 00       	call   f1a0 <__libc_assert_fail>
    9bfc:	48 8b 45 c8          	mov    -0x38(%rbp),%rax
    9c00:	64 48 2b 04 25 28 00 	sub    %fs:0x28,%rax
    9c07:	00 00 
    9c09:	74 53                	je     9c5e <__gconv_transform_internal_ucs4le.cold+0xbe>
    9c0b:	67 e8 5f c4 03 00    	addr32 call 46070 <__stack_chk_fail>
    9c11:	48 8b 45 c8          	mov    -0x38(%rbp),%rax
    9c15:	64 48 2b 04 25 28 00 	sub    %fs:0x28,%rax
    9c1c:	00 00 
    9c1e:	75 eb                	jne    9c0b <__gconv_transform_internal_ucs4le.cold+0x6b>
    9c20:	48 8d 0d d9 21 0b 00 	lea    0xb21d9(%rip),%rcx        # bbe00 <__PRETTY_FUNCTION__.18>
    9c27:	ba 5e 01 00 00       	mov    $0x15e,%edx
    9c2c:	48 8d 35 e2 94 0a 00 	lea    0xa94e2(%rip),%rsi        # b3115 <gconv_module_ext+0x14>
    9c33:	48 8d 3d ef 94 0a 00 	lea    0xa94ef(%rip),%rdi        # b3129 <gconv_module_ext+0x28>
    9c3a:	e8 61 55 00 00       	call   f1a0 <__libc_assert_fail>
    9c3f:	48 8d 0d ba 21 0b 00 	lea    0xb21ba(%rip),%rcx        # bbe00 <__PRETTY_FUNCTION__.18>
    9c46:	ba 53 02 00 00       	mov    $0x253,%edx
    9c4b:	48 8d 35 c3 94 0a 00 	lea    0xa94c3(%rip),%rsi        # b3115 <gconv_module_ext+0x14>
    9c52:	48 8d 3d bf ec 0a 00 	lea    0xaecbf(%rip),%rdi        # b8918 <gconv_conf_filename+0x38>
    9c59:	e8 42 55 00 00       	call   f1a0 <__libc_assert_fail>
    9c5e:	48 8d 0d 9b 21 0b 00 	lea    0xb219b(%rip),%rcx        # bbe00 <__PRETTY_FUNCTION__.18>
    9c65:	ba 52 02 00 00       	mov    $0x252,%edx
    9c6a:	48 8d 35 a4 94 0a 00 	lea    0xa94a4(%rip),%rsi        # b3115 <gconv_module_ext+0x14>
    9c71:	48 8d 3d c5 94 0a 00 	lea    0xa94c5(%rip),%rdi        # b313d <gconv_module_ext+0x3c>
    9c78:	e8 23 55 00 00       	call   f1a0 <__libc_assert_fail>

0000000000009c7d <__gconv_transform_ucs4le_internal.cold>:
    9c7d:	48 8b 45 c8          	mov    -0x38(%rbp),%rax
    9c81:	64 48 2b 04 25 28 00 	sub    %fs:0x28,%rax
    9c88:	00 00 
    9c8a:	0f 85 8a 00 00 00    	jne    9d1a <__gconv_transform_ucs4le_internal.cold+0x9d>
    9c90:	48 8d 0d 29 21 0b 00 	lea    0xb2129(%rip),%rcx        # bbdc0 <__PRETTY_FUNCTION__.17>
    9c97:	ba 87 02 00 00       	mov    $0x287,%edx
    9c9c:	48 8d 35 72 94 0a 00 	lea    0xa9472(%rip),%rsi        # b3115 <gconv_module_ext+0x14>
    9ca3:	48 8d 3d 8e ec 0a 00 	lea    0xaec8e(%rip),%rdi        # b8938 <gconv_conf_filename+0x58>
    9caa:	e8 f1 54 00 00       	call   f1a0 <__libc_assert_fail>
    9caf:	48 8b 45 c8          	mov    -0x38(%rbp),%rax
    9cb3:	64 48 2b 04 25 28 00 	sub    %fs:0x28,%rax
    9cba:	00 00 
    9cbc:	75 5c                	jne    9d1a <__gconv_transform_ucs4le_internal.cold+0x9d>
    9cbe:	48 8d 0d db 15 0b 00 	lea    0xb15db(%rip),%rcx        # bb2a0 <__PRETTY_FUNCTION__.16>
    9cc5:	ba e4 01 00 00       	mov    $0x1e4,%edx
    9cca:	48 8d 35 7d 94 0a 00 	lea    0xa947d(%rip),%rsi        # b314e <gconv_module_ext+0x4d>
    9cd1:	48 8d 3d 85 94 0a 00 	lea    0xa9485(%rip),%rdi        # b315d <gconv_module_ext+0x5c>
    9cd8:	e8 c3 54 00 00       	call   f1a0 <__libc_assert_fail>
    9cdd:	48 8b 45 c8          	mov    -0x38(%rbp),%rax
    9ce1:	64 48 2b 04 25 28 00 	sub    %fs:0x28,%rax
    9ce8:	00 00 
    9cea:	75 2e                	jne    9d1a <__gconv_transform_ucs4le_internal.cold+0x9d>
    9cec:	48 8d 0d cd 20 0b 00 	lea    0xb20cd(%rip),%rcx        # bbdc0 <__PRETTY_FUNCTION__.17>
    9cf3:	ba d3 01 00 00       	mov    $0x1d3,%edx
    9cf8:	48 8d 35 16 94 0a 00 	lea    0xa9416(%rip),%rsi        # b3115 <gconv_module_ext+0x14>
    9cff:	48 8d 3d 23 94 0a 00 	lea    0xa9423(%rip),%rdi        # b3129 <gconv_module_ext+0x28>
    9d06:	e8 95 54 00 00       	call   f1a0 <__libc_assert_fail>
    9d0b:	48 8b 45 c8          	mov    -0x38(%rbp),%rax
    9d0f:	64 48 2b 04 25 28 00 	sub    %fs:0x28,%rax
    9d16:	00 00 
    9d18:	74 53                	je     9d6d <__gconv_transform_ucs4le_internal.cold+0xf0>
    9d1a:	67 e8 50 c3 03 00    	addr32 call 46070 <__stack_chk_fail>
    9d20:	48 8b 45 c8          	mov    -0x38(%rbp),%rax
    9d24:	64 48 2b 04 25 28 00 	sub    %fs:0x28,%rax
    9d2b:	00 00 
    9d2d:	75 eb                	jne    9d1a <__gconv_transform_ucs4le_internal.cold+0x9d>
    9d2f:	48 8d 0d 8a 20 0b 00 	lea    0xb208a(%rip),%rcx        # bbdc0 <__PRETTY_FUNCTION__.17>
    9d36:	ba 5e 01 00 00       	mov    $0x15e,%edx
    9d3b:	48 8d 35 d3 93 0a 00 	lea    0xa93d3(%rip),%rsi        # b3115 <gconv_module_ext+0x14>
    9d42:	48 8d 3d e0 93 0a 00 	lea    0xa93e0(%rip),%rdi        # b3129 <gconv_module_ext+0x28>
    9d49:	e8 52 54 00 00       	call   f1a0 <__libc_assert_fail>
    9d4e:	48 8d 0d 6b 20 0b 00 	lea    0xb206b(%rip),%rcx        # bbdc0 <__PRETTY_FUNCTION__.17>
    9d55:	ba 53 02 00 00       	mov    $0x253,%edx
    9d5a:	48 8d 35 b4 93 0a 00 	lea    0xa93b4(%rip),%rsi        # b3115 <gconv_module_ext+0x14>
    9d61:	48 8d 3d b0 eb 0a 00 	lea    0xaebb0(%rip),%rdi        # b8918 <gconv_conf_filename+0x38>
    9d68:	e8 33 54 00 00       	call   f1a0 <__libc_assert_fail>
    9d6d:	48 8d 0d 4c 20 0b 00 	lea    0xb204c(%rip),%rcx        # bbdc0 <__PRETTY_FUNCTION__.17>
    9d74:	ba 52 02 00 00       	mov    $0x252,%edx
    9d79:	48 8d 35 95 93 0a 00 	lea    0xa9395(%rip),%rsi        # b3115 <gconv_module_ext+0x14>
    9d80:	48 8d 3d b6 93 0a 00 	lea    0xa93b6(%rip),%rdi        # b313d <gconv_module_ext+0x3c>
    9d87:	e8 14 54 00 00       	call   f1a0 <__libc_assert_fail>

0000000000009d8c <__gconv_transform_ascii_internal.cold>:
    9d8c:	48 8b 45 c8          	mov    -0x38(%rbp),%rax
    9d90:	64 48 2b 04 25 28 00 	sub    %fs:0x28,%rax
    9d97:	00 00 
    9d99:	75 2e                	jne    9dc9 <__gconv_transform_ascii_internal.cold+0x3d>
    9d9b:	48 8d 0d de 1f 0b 00 	lea    0xb1fde(%rip),%rcx        # bbd80 <__PRETTY_FUNCTION__.15>
    9da2:	ba 52 02 00 00       	mov    $0x252,%edx
    9da7:	48 8d 35 67 93 0a 00 	lea    0xa9367(%rip),%rsi        # b3115 <gconv_module_ext+0x14>
    9dae:	48 8d 3d 88 93 0a 00 	lea    0xa9388(%rip),%rdi        # b313d <gconv_module_ext+0x3c>
    9db5:	e8 e6 53 00 00       	call   f1a0 <__libc_assert_fail>
    9dba:	48 8b 45 c8          	mov    -0x38(%rbp),%rax
    9dbe:	64 48 2b 04 25 28 00 	sub    %fs:0x28,%rax
    9dc5:	00 00 
    9dc7:	74 34                	je     9dfd <__gconv_transform_ascii_internal.cold+0x71>
    9dc9:	67 e8 a1 c2 03 00    	addr32 call 46070 <__stack_chk_fail>
    9dcf:	48 8b 45 c8          	mov    -0x38(%rbp),%rax
    9dd3:	64 48 2b 04 25 28 00 	sub    %fs:0x28,%rax
    9dda:	00 00 
    9ddc:	75 eb                	jne    9dc9 <__gconv_transform_ascii_internal.cold+0x3d>
    9dde:	48 8d 0d 9b 1f 0b 00 	lea    0xb1f9b(%rip),%rcx        # bbd80 <__PRETTY_FUNCTION__.15>
    9de5:	ba 5e 01 00 00       	mov    $0x15e,%edx
    9dea:	48 8d 35 24 93 0a 00 	lea    0xa9324(%rip),%rsi        # b3115 <gconv_module_ext+0x14>
    9df1:	48 8d 3d 31 93 0a 00 	lea    0xa9331(%rip),%rdi        # b3129 <gconv_module_ext+0x28>
    9df8:	e8 a3 53 00 00       	call   f1a0 <__libc_assert_fail>
    9dfd:	48 8d 0d 7c 1f 0b 00 	lea    0xb1f7c(%rip),%rcx        # bbd80 <__PRETTY_FUNCTION__.15>
    9e04:	ba 53 02 00 00       	mov    $0x253,%edx
    9e09:	48 8d 35 05 93 0a 00 	lea    0xa9305(%rip),%rsi        # b3115 <gconv_module_ext+0x14>
    9e10:	48 8d 3d 01 eb 0a 00 	lea    0xaeb01(%rip),%rdi        # b8918 <gconv_conf_filename+0x38>
    9e17:	e8 84 53 00 00       	call   f1a0 <__libc_assert_fail>

0000000000009e1c <__gconv_transform_internal_ascii.cold>:
    9e1c:	48 8b 45 c8          	mov    -0x38(%rbp),%rax
    9e20:	64 48 2b 04 25 28 00 	sub    %fs:0x28,%rax
    9e27:	00 00 
    9e29:	75 60                	jne    9e8b <__gconv_transform_internal_ascii.cold+0x6f>
    9e2b:	48 8d 0d 0e 1f 0b 00 	lea    0xb1f0e(%rip),%rcx        # bbd40 <__PRETTY_FUNCTION__.14>
    9e32:	ba d3 01 00 00       	mov    $0x1d3,%edx
    9e37:	48 8d 35 d7 92 0a 00 	lea    0xa92d7(%rip),%rsi        # b3115 <gconv_module_ext+0x14>
    9e3e:	48 8d 3d e4 92 0a 00 	lea    0xa92e4(%rip),%rdi        # b3129 <gconv_module_ext+0x28>
    9e45:	e8 56 53 00 00       	call   f1a0 <__libc_assert_fail>
    9e4a:	48 8b 45 c8          	mov    -0x38(%rbp),%rax
    9e4e:	64 48 2b 04 25 28 00 	sub    %fs:0x28,%rax
    9e55:	00 00 
    9e57:	75 32                	jne    9e8b <__gconv_transform_internal_ascii.cold+0x6f>
    9e59:	48 8d 0d 20 14 0b 00 	lea    0xb1420(%rip),%rcx        # bb280 <__PRETTY_FUNCTION__.13>
    9e60:	ba 37 01 00 00       	mov    $0x137,%edx
    9e65:	48 8d 35 07 93 0a 00 	lea    0xa9307(%rip),%rsi        # b3173 <gconv_module_ext+0x72>
    9e6c:	48 8d 3d fd ea 0a 00 	lea    0xaeafd(%rip),%rdi        # b8970 <gconv_conf_filename+0x90>
    9e73:	e8 28 53 00 00       	call   f1a0 <__libc_assert_fail>
    9e78:	48 8b 45 c8          	mov    -0x38(%rbp),%rax
    9e7c:	64 48 2b 04 25 28 00 	sub    %fs:0x28,%rax
    9e83:	00 00 
    9e85:	0f 84 c2 00 00 00    	je     9f4d <__gconv_transform_internal_ascii.cold+0x131>
    9e8b:	67 e8 df c1 03 00    	addr32 call 46070 <__stack_chk_fail>
    9e91:	48 8b 45 c8          	mov    -0x38(%rbp),%rax
    9e95:	64 48 2b 04 25 28 00 	sub    %fs:0x28,%rax
    9e9c:	00 00 
    9e9e:	75 eb                	jne    9e8b <__gconv_transform_internal_ascii.cold+0x6f>
    9ea0:	48 8d 0d d9 13 0b 00 	lea    0xb13d9(%rip),%rcx        # bb280 <__PRETTY_FUNCTION__.13>
    9ea7:	ba a0 01 00 00       	mov    $0x1a0,%edx
    9eac:	48 8d 35 c0 92 0a 00 	lea    0xa92c0(%rip),%rsi        # b3173 <gconv_module_ext+0x72>
    9eb3:	48 8d 3d 8e eb 0a 00 	lea    0xaeb8e(%rip),%rdi        # b8a48 <gconv_conf_filename+0x168>
    9eba:	e8 e1 52 00 00       	call   f1a0 <__libc_assert_fail>
    9ebf:	48 8b 45 c8          	mov    -0x38(%rbp),%rax
    9ec3:	64 48 2b 04 25 28 00 	sub    %fs:0x28,%rax
    9eca:	00 00 
    9ecc:	75 bd                	jne    9e8b <__gconv_transform_internal_ascii.cold+0x6f>
    9ece:	48 8d 0d ab 13 0b 00 	lea    0xb13ab(%rip),%rcx        # bb280 <__PRETTY_FUNCTION__.13>
    9ed5:	ba 9f 01 00 00       	mov    $0x19f,%edx
    9eda:	48 8d 35 92 92 0a 00 	lea    0xa9292(%rip),%rsi        # b3173 <gconv_module_ext+0x72>
    9ee1:	48 8d 3d 38 eb 0a 00 	lea    0xaeb38(%rip),%rdi        # b8a20 <gconv_conf_filename+0x140>
    9ee8:	e8 b3 52 00 00       	call   f1a0 <__libc_assert_fail>
    9eed:	48 8b 45 c8          	mov    -0x38(%rbp),%rax
    9ef1:	64 48 2b 04 25 28 00 	sub    %fs:0x28,%rax
    9ef8:	00 00 
    9efa:	75 8f                	jne    9e8b <__gconv_transform_internal_ascii.cold+0x6f>
    9efc:	48 8d 0d 7d 13 0b 00 	lea    0xb137d(%rip),%rcx        # bb280 <__PRETTY_FUNCTION__.13>
    9f03:	ba 95 01 00 00       	mov    $0x195,%edx
    9f08:	48 8d 35 64 92 0a 00 	lea    0xa9264(%rip),%rsi        # b3173 <gconv_module_ext+0x72>
    9f0f:	48 8d 3d e2 ea 0a 00 	lea    0xaeae2(%rip),%rdi        # b89f8 <gconv_conf_filename+0x118>
    9f16:	e8 85 52 00 00       	call   f1a0 <__libc_assert_fail>
    9f1b:	48 8b 45 c8          	mov    -0x38(%rbp),%rax
    9f1f:	64 48 2b 04 25 28 00 	sub    %fs:0x28,%rax
    9f26:	00 00 
    9f28:	0f 85 5d ff ff ff    	jne    9e8b <__gconv_transform_internal_ascii.cold+0x6f>
    9f2e:	48 8d 0d 4b 13 0b 00 	lea    0xb134b(%rip),%rcx        # bb280 <__PRETTY_FUNCTION__.13>
    9f35:	ba 54 01 00 00       	mov    $0x154,%edx
    9f3a:	48 8d 35 32 92 0a 00 	lea    0xa9232(%rip),%rsi        # b3173 <gconv_module_ext+0x72>
    9f41:	48 8d 3d 58 ea 0a 00 	lea    0xaea58(%rip),%rdi        # b89a0 <gconv_conf_filename+0xc0>
    9f48:	e8 53 52 00 00       	call   f1a0 <__libc_assert_fail>
    9f4d:	48 8d 0d ec 1d 0b 00 	lea    0xb1dec(%rip),%rcx        # bbd40 <__PRETTY_FUNCTION__.14>
    9f54:	ba 87 02 00 00       	mov    $0x287,%edx
    9f59:	48 8d 35 b5 91 0a 00 	lea    0xa91b5(%rip),%rsi        # b3115 <gconv_module_ext+0x14>
    9f60:	48 8d 3d d1 e9 0a 00 	lea    0xae9d1(%rip),%rdi        # b8938 <gconv_conf_filename+0x58>
    9f67:	e8 34 52 00 00       	call   f1a0 <__libc_assert_fail>
    9f6c:	48 8b 45 c8          	mov    -0x38(%rbp),%rax
    9f70:	64 48 2b 04 25 28 00 	sub    %fs:0x28,%rax
    9f77:	00 00 
    9f79:	0f 85 0c ff ff ff    	jne    9e8b <__gconv_transform_internal_ascii.cold+0x6f>
    9f7f:	48 8d 0d ba 1d 0b 00 	lea    0xb1dba(%rip),%rcx        # bbd40 <__PRETTY_FUNCTION__.14>
    9f86:	ba 5e 01 00 00       	mov    $0x15e,%edx
    9f8b:	48 8d 35 83 91 0a 00 	lea    0xa9183(%rip),%rsi        # b3115 <gconv_module_ext+0x14>
    9f92:	48 8d 3d 90 91 0a 00 	lea    0xa9190(%rip),%rdi        # b3129 <gconv_module_ext+0x28>
    9f99:	e8 02 52 00 00       	call   f1a0 <__libc_assert_fail>
    9f9e:	48 8b 45 c8          	mov    -0x38(%rbp),%rax
    9fa2:	64 48 2b 04 25 28 00 	sub    %fs:0x28,%rax
    9fa9:	00 00 
    9fab:	0f 85 da fe ff ff    	jne    9e8b <__gconv_transform_internal_ascii.cold+0x6f>
    9fb1:	48 8d 0d c8 12 0b 00 	lea    0xb12c8(%rip),%rcx        # bb280 <__PRETTY_FUNCTION__.13>
    9fb8:	ba 83 01 00 00       	mov    $0x183,%edx
    9fbd:	48 8d 35 af 91 0a 00 	lea    0xa91af(%rip),%rsi        # b3173 <gconv_module_ext+0x72>
    9fc4:	48 8d 3d 05 ea 0a 00 	lea    0xaea05(%rip),%rdi        # b89d0 <gconv_conf_filename+0xf0>
    9fcb:	e8 d0 51 00 00       	call   f1a0 <__libc_assert_fail>
    9fd0:	48 8b 45 c8          	mov    -0x38(%rbp),%rax
    9fd4:	64 48 2b 04 25 28 00 	sub    %fs:0x28,%rax
    9fdb:	00 00 
    9fdd:	0f 85 a8 fe ff ff    	jne    9e8b <__gconv_transform_internal_ascii.cold+0x6f>
    9fe3:	48 8d 0d 56 1d 0b 00 	lea    0xb1d56(%rip),%rcx        # bbd40 <__PRETTY_FUNCTION__.14>
    9fea:	ba 53 02 00 00       	mov    $0x253,%edx
    9fef:	48 8d 35 1f 91 0a 00 	lea    0xa911f(%rip),%rsi        # b3115 <gconv_module_ext+0x14>
    9ff6:	48 8d 3d 1b e9 0a 00 	lea    0xae91b(%rip),%rdi        # b8918 <gconv_conf_filename+0x38>
    9ffd:	e8 9e 51 00 00       	call   f1a0 <__libc_assert_fail>
    a002:	48 8b 45 c8          	mov    -0x38(%rbp),%rax
    a006:	64 48 2b 04 25 28 00 	sub    %fs:0x28,%rax
    a00d:	00 00 
    a00f:	0f 85 76 fe ff ff    	jne    9e8b <__gconv_transform_internal_ascii.cold+0x6f>
    a015:	48 8d 0d 24 1d 0b 00 	lea    0xb1d24(%rip),%rcx        # bbd40 <__PRETTY_FUNCTION__.14>
    a01c:	ba 52 02 00 00       	mov    $0x252,%edx
    a021:	48 8d 35 ed 90 0a 00 	lea    0xa90ed(%rip),%rsi        # b3115 <gconv_module_ext+0x14>
    a028:	48 8d 3d 0e 91 0a 00 	lea    0xa910e(%rip),%rdi        # b313d <gconv_module_ext+0x3c>
    a02f:	e8 6c 51 00 00       	call   f1a0 <__libc_assert_fail>

000000000000a034 <__gconv_transform_internal_utf8.cold>:
    a034:	48 8b 45 c8          	mov    -0x38(%rbp),%rax
    a038:	64 48 2b 04 25 28 00 	sub    %fs:0x28,%rax
    a03f:	00 00 
    a041:	75 60                	jne    a0a3 <__gconv_transform_internal_utf8.cold+0x6f>
    a043:	48 8d 0d 16 12 0b 00 	lea    0xb1216(%rip),%rcx        # bb260 <__PRETTY_FUNCTION__.11>
    a04a:	ba 37 01 00 00       	mov    $0x137,%edx
    a04f:	48 8d 35 1d 91 0a 00 	lea    0xa911d(%rip),%rsi        # b3173 <gconv_module_ext+0x72>
    a056:	48 8d 3d 13 e9 0a 00 	lea    0xae913(%rip),%rdi        # b8970 <gconv_conf_filename+0x90>
    a05d:	e8 3e 51 00 00       	call   f1a0 <__libc_assert_fail>
    a062:	48 8b 45 c8          	mov    -0x38(%rbp),%rax
    a066:	64 48 2b 04 25 28 00 	sub    %fs:0x28,%rax
    a06d:	00 00 
    a06f:	75 32                	jne    a0a3 <__gconv_transform_internal_utf8.cold+0x6f>
    a071:	48 8d 0d a8 1c 0b 00 	lea    0xb1ca8(%rip),%rcx        # bbd20 <__PRETTY_FUNCTION__.12>
    a078:	ba d3 01 00 00       	mov    $0x1d3,%edx
    a07d:	48 8d 35 91 90 0a 00 	lea    0xa9091(%rip),%rsi        # b3115 <gconv_module_ext+0x14>
    a084:	48 8d 3d 9e 90 0a 00 	lea    0xa909e(%rip),%rdi        # b3129 <gconv_module_ext+0x28>
    a08b:	e8 10 51 00 00       	call   f1a0 <__libc_assert_fail>
    a090:	48 8b 45 c8          	mov    -0x38(%rbp),%rax
    a094:	64 48 2b 04 25 28 00 	sub    %fs:0x28,%rax
    a09b:	00 00 
    a09d:	0f 84 58 01 00 00    	je     a1fb <__gconv_transform_internal_utf8.cold+0x1c7>
    a0a3:	67 e8 c7 bf 03 00    	addr32 call 46070 <__stack_chk_fail>
    a0a9:	48 8b 45 c8          	mov    -0x38(%rbp),%rax
    a0ad:	64 48 2b 04 25 28 00 	sub    %fs:0x28,%rax
    a0b4:	00 00 
    a0b6:	75 eb                	jne    a0a3 <__gconv_transform_internal_utf8.cold+0x6f>
    a0b8:	48 8d 0d a1 11 0b 00 	lea    0xb11a1(%rip),%rcx        # bb260 <__PRETTY_FUNCTION__.11>
    a0bf:	ba a0 01 00 00       	mov    $0x1a0,%edx
    a0c4:	48 8d 35 a8 90 0a 00 	lea    0xa90a8(%rip),%rsi        # b3173 <gconv_module_ext+0x72>
    a0cb:	48 8d 3d 76 e9 0a 00 	lea    0xae976(%rip),%rdi        # b8a48 <gconv_conf_filename+0x168>
    a0d2:	e8 c9 50 00 00       	call   f1a0 <__libc_assert_fail>
    a0d7:	48 8b 45 c8          	mov    -0x38(%rbp),%rax
    a0db:	64 48 2b 04 25 28 00 	sub    %fs:0x28,%rax
    a0e2:	00 00 
    a0e4:	75 bd                	jne    a0a3 <__gconv_transform_internal_utf8.cold+0x6f>
    a0e6:	48 8d 0d 73 11 0b 00 	lea    0xb1173(%rip),%rcx        # bb260 <__PRETTY_FUNCTION__.11>
    a0ed:	ba 83 01 00 00       	mov    $0x183,%edx
    a0f2:	48 8d 35 7a 90 0a 00 	lea    0xa907a(%rip),%rsi        # b3173 <gconv_module_ext+0x72>
    a0f9:	48 8d 3d d0 e8 0a 00 	lea    0xae8d0(%rip),%rdi        # b89d0 <gconv_conf_filename+0xf0>
    a100:	e8 9b 50 00 00       	call   f1a0 <__libc_assert_fail>
    a105:	48 8b 45 c8          	mov    -0x38(%rbp),%rax
    a109:	64 48 2b 04 25 28 00 	sub    %fs:0x28,%rax
    a110:	00 00 
    a112:	75 8f                	jne    a0a3 <__gconv_transform_internal_utf8.cold+0x6f>
    a114:	48 8d 0d 05 1c 0b 00 	lea    0xb1c05(%rip),%rcx        # bbd20 <__PRETTY_FUNCTION__.12>
    a11b:	ba 5e 01 00 00       	mov    $0x15e,%edx
    a120:	48 8d 35 ee 8f 0a 00 	lea    0xa8fee(%rip),%rsi        # b3115 <gconv_module_ext+0x14>
    a127:	48 8d 3d fb 8f 0a 00 	lea    0xa8ffb(%rip),%rdi        # b3129 <gconv_module_ext+0x28>
    a12e:	e8 6d 50 00 00       	call   f1a0 <__libc_assert_fail>
    a133:	48 8b 45 c8          	mov    -0x38(%rbp),%rax
    a137:	64 48 2b 04 25 28 00 	sub    %fs:0x28,%rax
    a13e:	00 00 
    a140:	0f 85 5d ff ff ff    	jne    a0a3 <__gconv_transform_internal_utf8.cold+0x6f>
    a146:	48 8d 0d d3 1b 0b 00 	lea    0xb1bd3(%rip),%rcx        # bbd20 <__PRETTY_FUNCTION__.12>
    a14d:	ba 52 02 00 00       	mov    $0x252,%edx
    a152:	48 8d 35 bc 8f 0a 00 	lea    0xa8fbc(%rip),%rsi        # b3115 <gconv_module_ext+0x14>
    a159:	48 8d 3d dd 8f 0a 00 	lea    0xa8fdd(%rip),%rdi        # b313d <gconv_module_ext+0x3c>
    a160:	e8 3b 50 00 00       	call   f1a0 <__libc_assert_fail>
    a165:	48 8b 45 c8          	mov    -0x38(%rbp),%rax
    a169:	64 48 2b 04 25 28 00 	sub    %fs:0x28,%rax
    a170:	00 00 
    a172:	0f 85 2b ff ff ff    	jne    a0a3 <__gconv_transform_internal_utf8.cold+0x6f>
    a178:	48 8d 0d e1 10 0b 00 	lea    0xb10e1(%rip),%rcx        # bb260 <__PRETTY_FUNCTION__.11>
    a17f:	ba 9f 01 00 00       	mov    $0x19f,%edx
    a184:	48 8d 35 e8 8f 0a 00 	lea    0xa8fe8(%rip),%rsi        # b3173 <gconv_module_ext+0x72>
    a18b:	48 8d 3d 8e e8 0a 00 	lea    0xae88e(%rip),%rdi        # b8a20 <gconv_conf_filename+0x140>
    a192:	e8 09 50 00 00       	call   f1a0 <__libc_assert_fail>
    a197:	48 8b 45 c8          	mov    -0x38(%rbp),%rax
    a19b:	64 48 2b 04 25 28 00 	sub    %fs:0x28,%rax
    a1a2:	00 00 
    a1a4:	0f 85 f9 fe ff ff    	jne    a0a3 <__gconv_transform_internal_utf8.cold+0x6f>
    a1aa:	48 8d 0d af 10 0b 00 	lea    0xb10af(%rip),%rcx        # bb260 <__PRETTY_FUNCTION__.11>
    a1b1:	ba 95 01 00 00       	mov    $0x195,%edx
    a1b6:	48 8d 35 b6 8f 0a 00 	lea    0xa8fb6(%rip),%rsi        # b3173 <gconv_module_ext+0x72>
    a1bd:	48 8d 3d 34 e8 0a 00 	lea    0xae834(%rip),%rdi        # b89f8 <gconv_conf_filename+0x118>
    a1c4:	e8 d7 4f 00 00       	call   f1a0 <__libc_assert_fail>
    a1c9:	48 8b 45 c8          	mov    -0x38(%rbp),%rax
    a1cd:	64 48 2b 04 25 28 00 	sub    %fs:0x28,%rax
    a1d4:	00 00 
    a1d6:	0f 85 c7 fe ff ff    	jne    a0a3 <__gconv_transform_internal_utf8.cold+0x6f>
    a1dc:	48 8d 0d 7d 10 0b 00 	lea    0xb107d(%rip),%rcx        # bb260 <__PRETTY_FUNCTION__.11>
    a1e3:	ba 54 01 00 00       	mov    $0x154,%edx
    a1e8:	48 8d 35 84 8f 0a 00 	lea    0xa8f84(%rip),%rsi        # b3173 <gconv_module_ext+0x72>
    a1ef:	48 8d 3d aa e7 0a 00 	lea    0xae7aa(%rip),%rdi        # b89a0 <gconv_conf_filename+0xc0>
    a1f6:	e8 a5 4f 00 00       	call   f1a0 <__libc_assert_fail>
    a1fb:	48 8d 0d 1e 1b 0b 00 	lea    0xb1b1e(%rip),%rcx        # bbd20 <__PRETTY_FUNCTION__.12>
    a202:	ba 87 02 00 00       	mov    $0x287,%edx
    a207:	48 8d 35 07 8f 0a 00 	lea    0xa8f07(%rip),%rsi        # b3115 <gconv_module_ext+0x14>
    a20e:	48 8d 3d 23 e7 0a 00 	lea    0xae723(%rip),%rdi        # b8938 <gconv_conf_filename+0x58>
    a215:	e8 86 4f 00 00       	call   f1a0 <__libc_assert_fail>
    a21a:	48 8b 45 c8          	mov    -0x38(%rbp),%rax
    a21e:	64 48 2b 04 25 28 00 	sub    %fs:0x28,%rax
    a225:	00 00 
    a227:	0f 85 76 fe ff ff    	jne    a0a3 <__gconv_transform_internal_utf8.cold+0x6f>
    a22d:	48 8d 0d ec 1a 0b 00 	lea    0xb1aec(%rip),%rcx        # bbd20 <__PRETTY_FUNCTION__.12>
    a234:	ba 53 02 00 00       	mov    $0x253,%edx
    a239:	48 8d 35 d5 8e 0a 00 	lea    0xa8ed5(%rip),%rsi        # b3115 <gconv_module_ext+0x14>
    a240:	48 8d 3d d1 e6 0a 00 	lea    0xae6d1(%rip),%rdi        # b8918 <gconv_conf_filename+0x38>
    a247:	e8 54 4f 00 00       	call   f1a0 <__libc_assert_fail>

000000000000a24c <__gconv_transform_utf8_internal.cold>:
    a24c:	48 8b 45 c8          	mov    -0x38(%rbp),%rax
    a250:	64 48 2b 04 25 28 00 	sub    %fs:0x28,%rax
    a257:	00 00 
    a259:	75 60                	jne    a2bb <__gconv_transform_utf8_internal.cold+0x6f>
    a25b:	48 8d 0d 9e 1a 0b 00 	lea    0xb1a9e(%rip),%rcx        # bbd00 <__PRETTY_FUNCTION__.10>
    a262:	ba 5e 01 00 00       	mov    $0x15e,%edx
    a267:	48 8d 35 a7 8e 0a 00 	lea    0xa8ea7(%rip),%rsi        # b3115 <gconv_module_ext+0x14>
    a26e:	48 8d 3d b4 8e 0a 00 	lea    0xa8eb4(%rip),%rdi        # b3129 <gconv_module_ext+0x28>
    a275:	e8 26 4f 00 00       	call   f1a0 <__libc_assert_fail>
    a27a:	48 8b 45 c8          	mov    -0x38(%rbp),%rax
    a27e:	64 48 2b 04 25 28 00 	sub    %fs:0x28,%rax
    a285:	00 00 
    a287:	75 32                	jne    a2bb <__gconv_transform_utf8_internal.cold+0x6f>
    a289:	48 8d 0d b0 0f 0b 00 	lea    0xb0fb0(%rip),%rcx        # bb240 <__PRETTY_FUNCTION__.8>
    a290:	ba 83 01 00 00       	mov    $0x183,%edx
    a295:	48 8d 35 d7 8e 0a 00 	lea    0xa8ed7(%rip),%rsi        # b3173 <gconv_module_ext+0x72>
    a29c:	48 8d 3d 2d e7 0a 00 	lea    0xae72d(%rip),%rdi        # b89d0 <gconv_conf_filename+0xf0>
    a2a3:	e8 f8 4e 00 00       	call   f1a0 <__libc_assert_fail>
    a2a8:	48 8b 45 c8          	mov    -0x38(%rbp),%rax
    a2ac:	64 48 2b 04 25 28 00 	sub    %fs:0x28,%rax
    a2b3:	00 00 
    a2b5:	0f 84 c2 00 00 00    	je     a37d <__gconv_transform_utf8_internal.cold+0x131>
    a2bb:	67 e8 af bd 03 00    	addr32 call 46070 <__stack_chk_fail>
    a2c1:	48 8b 45 c8          	mov    -0x38(%rbp),%rax
    a2c5:	64 48 2b 04 25 28 00 	sub    %fs:0x28,%rax
    a2cc:	00 00 
    a2ce:	75 eb                	jne    a2bb <__gconv_transform_utf8_internal.cold+0x6f>
    a2d0:	48 8d 0d 29 1a 0b 00 	lea    0xb1a29(%rip),%rcx        # bbd00 <__PRETTY_FUNCTION__.10>
    a2d7:	ba 52 02 00 00       	mov    $0x252,%edx
    a2dc:	48 8d 35 32 8e 0a 00 	lea    0xa8e32(%rip),%rsi        # b3115 <gconv_module_ext+0x14>
    a2e3:	48 8d 3d 53 8e 0a 00 	lea    0xa8e53(%rip),%rdi        # b313d <gconv_module_ext+0x3c>
    a2ea:	e8 b1 4e 00 00       	call   f1a0 <__libc_assert_fail>
    a2ef:	48 8b 45 c8          	mov    -0x38(%rbp),%rax
    a2f3:	64 48 2b 04 25 28 00 	sub    %fs:0x28,%rax
    a2fa:	00 00 
    a2fc:	75 bd                	jne    a2bb <__gconv_transform_utf8_internal.cold+0x6f>
    a2fe:	48 8d 0d 3b 0f 0b 00 	lea    0xb0f3b(%rip),%rcx        # bb240 <__PRETTY_FUNCTION__.8>
    a305:	ba 95 01 00 00       	mov    $0x195,%edx
    a30a:	48 8d 35 62 8e 0a 00 	lea    0xa8e62(%rip),%rsi        # b3173 <gconv_module_ext+0x72>
    a311:	48 8d 3d e0 e6 0a 00 	lea    0xae6e0(%rip),%rdi        # b89f8 <gconv_conf_filename+0x118>
    a318:	e8 83 4e 00 00       	call   f1a0 <__libc_assert_fail>
    a31d:	48 8b 45 c8          	mov    -0x38(%rbp),%rax
    a321:	64 48 2b 04 25 28 00 	sub    %fs:0x28,%rax
    a328:	00 00 
    a32a:	75 8f                	jne    a2bb <__gconv_transform_utf8_internal.cold+0x6f>
    a32c:	48 8d 0d cd 19 0b 00 	lea    0xb19cd(%rip),%rcx        # bbd00 <__PRETTY_FUNCTION__.10>
    a333:	ba 53 02 00 00       	mov    $0x253,%edx
    a338:	48 8d 35 d6 8d 0a 00 	lea    0xa8dd6(%rip),%rsi        # b3115 <gconv_module_ext+0x14>
    a33f:	48 8d 3d d2 e5 0a 00 	lea    0xae5d2(%rip),%rdi        # b8918 <gconv_conf_filename+0x38>
    a346:	e8 55 4e 00 00       	call   f1a0 <__libc_assert_fail>
    a34b:	48 8b 45 c8          	mov    -0x38(%rbp),%rax
    a34f:	64 48 2b 04 25 28 00 	sub    %fs:0x28,%rax
    a356:	00 00 
    a358:	0f 85 5d ff ff ff    	jne    a2bb <__gconv_transform_utf8_internal.cold+0x6f>
    a35e:	48 8d 0d 9b 19 0b 00 	lea    0xb199b(%rip),%rcx        # bbd00 <__PRETTY_FUNCTION__.10>
    a365:	ba d3 01 00 00       	mov    $0x1d3,%edx
    a36a:	48 8d 35 a4 8d 0a 00 	lea    0xa8da4(%rip),%rsi        # b3115 <gconv_module_ext+0x14>
    a371:	48 8d 3d b1 8d 0a 00 	lea    0xa8db1(%rip),%rdi        # b3129 <gconv_module_ext+0x28>
    a378:	e8 23 4e 00 00       	call   f1a0 <__libc_assert_fail>
    a37d:	48 8d 0d 7c 19 0b 00 	lea    0xb197c(%rip),%rcx        # bbd00 <__PRETTY_FUNCTION__.10>
    a384:	ba 82 02 00 00       	mov    $0x282,%edx
    a389:	48 8d 35 85 8d 0a 00 	lea    0xa8d85(%rip),%rsi        # b3115 <gconv_module_ext+0x14>
    a390:	48 8d 3d ec 8d 0a 00 	lea    0xa8dec(%rip),%rdi        # b3183 <gconv_module_ext+0x82>
    a397:	e8 04 4e 00 00       	call   f1a0 <__libc_assert_fail>

000000000000a39c <__gconv_transform_ucs2_internal.cold>:
    a39c:	48 8b 45 c8          	mov    -0x38(%rbp),%rax
    a3a0:	64 48 2b 04 25 28 00 	sub    %fs:0x28,%rax
    a3a7:	00 00 
    a3a9:	0f 85 52 01 00 00    	jne    a501 <__gconv_transform_ucs2_internal.cold+0x165>
    a3af:	48 8d 0d 2a 19 0b 00 	lea    0xb192a(%rip),%rcx        # bbce0 <__PRETTY_FUNCTION__.7>
    a3b6:	ba 87 02 00 00       	mov    $0x287,%edx
    a3bb:	48 8d 35 53 8d 0a 00 	lea    0xa8d53(%rip),%rsi        # b3115 <gconv_module_ext+0x14>
    a3c2:	48 8d 3d 6f e5 0a 00 	lea    0xae56f(%rip),%rdi        # b8938 <gconv_conf_filename+0x58>
    a3c9:	e8 d2 4d 00 00       	call   f1a0 <__libc_assert_fail>
    a3ce:	48 8b 45 c8          	mov    -0x38(%rbp),%rax
    a3d2:	64 48 2b 04 25 28 00 	sub    %fs:0x28,%rax
    a3d9:	00 00 
    a3db:	0f 85 20 01 00 00    	jne    a501 <__gconv_transform_ucs2_internal.cold+0x165>
    a3e1:	48 8d 0d 38 0e 0b 00 	lea    0xb0e38(%rip),%rcx        # bb220 <__PRETTY_FUNCTION__.6>
    a3e8:	ba 54 01 00 00       	mov    $0x154,%edx
    a3ed:	48 8d 35 7f 8d 0a 00 	lea    0xa8d7f(%rip),%rsi        # b3173 <gconv_module_ext+0x72>
    a3f4:	48 8d 3d a5 e5 0a 00 	lea    0xae5a5(%rip),%rdi        # b89a0 <gconv_conf_filename+0xc0>
    a3fb:	e8 a0 4d 00 00       	call   f1a0 <__libc_assert_fail>
    a400:	48 8b 45 c8          	mov    -0x38(%rbp),%rax
    a404:	64 48 2b 04 25 28 00 	sub    %fs:0x28,%rax
    a40b:	00 00 
    a40d:	0f 85 ee 00 00 00    	jne    a501 <__gconv_transform_ucs2_internal.cold+0x165>
    a413:	48 8d 0d 06 0e 0b 00 	lea    0xb0e06(%rip),%rcx        # bb220 <__PRETTY_FUNCTION__.6>
    a41a:	ba 83 01 00 00       	mov    $0x183,%edx
    a41f:	48 8d 35 4d 8d 0a 00 	lea    0xa8d4d(%rip),%rsi        # b3173 <gconv_module_ext+0x72>
    a426:	48 8d 3d a3 e5 0a 00 	lea    0xae5a3(%rip),%rdi        # b89d0 <gconv_conf_filename+0xf0>
    a42d:	e8 6e 4d 00 00       	call   f1a0 <__libc_assert_fail>
    a432:	48 8b 45 c8          	mov    -0x38(%rbp),%rax
    a436:	64 48 2b 04 25 28 00 	sub    %fs:0x28,%rax
    a43d:	00 00 
    a43f:	0f 85 bc 00 00 00    	jne    a501 <__gconv_transform_ucs2_internal.cold+0x165>
    a445:	48 8d 0d 94 18 0b 00 	lea    0xb1894(%rip),%rcx        # bbce0 <__PRETTY_FUNCTION__.7>
    a44c:	ba 5e 01 00 00       	mov    $0x15e,%edx
    a451:	48 8d 35 bd 8c 0a 00 	lea    0xa8cbd(%rip),%rsi        # b3115 <gconv_module_ext+0x14>
    a458:	48 8d 3d ca 8c 0a 00 	lea    0xa8cca(%rip),%rdi        # b3129 <gconv_module_ext+0x28>
    a45f:	e8 3c 4d 00 00       	call   f1a0 <__libc_assert_fail>
    a464:	48 8b 45 c8          	mov    -0x38(%rbp),%rax
    a468:	64 48 2b 04 25 28 00 	sub    %fs:0x28,%rax
    a46f:	00 00 
    a471:	0f 85 8a 00 00 00    	jne    a501 <__gconv_transform_ucs2_internal.cold+0x165>
    a477:	48 8d 0d 62 18 0b 00 	lea    0xb1862(%rip),%rcx        # bbce0 <__PRETTY_FUNCTION__.7>
    a47e:	ba 52 02 00 00       	mov    $0x252,%edx
    a483:	48 8d 35 8b 8c 0a 00 	lea    0xa8c8b(%rip),%rsi        # b3115 <gconv_module_ext+0x14>
    a48a:	48 8d 3d ac 8c 0a 00 	lea    0xa8cac(%rip),%rdi        # b313d <gconv_module_ext+0x3c>
    a491:	e8 0a 4d 00 00       	call   f1a0 <__libc_assert_fail>
    a496:	48 8b 45 c8          	mov    -0x38(%rbp),%rax
    a49a:	64 48 2b 04 25 28 00 	sub    %fs:0x28,%rax
    a4a1:	00 00 
    a4a3:	75 5c                	jne    a501 <__gconv_transform_ucs2_internal.cold+0x165>
    a4a5:	48 8d 0d 34 18 0b 00 	lea    0xb1834(%rip),%rcx        # bbce0 <__PRETTY_FUNCTION__.7>
    a4ac:	ba 53 02 00 00       	mov    $0x253,%edx
    a4b1:	48 8d 35 5d 8c 0a 00 	lea    0xa8c5d(%rip),%rsi        # b3115 <gconv_module_ext+0x14>
    a4b8:	48 8d 3d 59 e4 0a 00 	lea    0xae459(%rip),%rdi        # b8918 <gconv_conf_filename+0x38>
    a4bf:	e8 dc 4c 00 00       	call   f1a0 <__libc_assert_fail>
    a4c4:	48 8b 45 c8          	mov    -0x38(%rbp),%rax
    a4c8:	64 48 2b 04 25 28 00 	sub    %fs:0x28,%rax
    a4cf:	00 00 
    a4d1:	75 2e                	jne    a501 <__gconv_transform_ucs2_internal.cold+0x165>
    a4d3:	48 8d 0d 46 0d 0b 00 	lea    0xb0d46(%rip),%rcx        # bb220 <__PRETTY_FUNCTION__.6>
    a4da:	ba 37 01 00 00       	mov    $0x137,%edx
    a4df:	48 8d 35 8d 8c 0a 00 	lea    0xa8c8d(%rip),%rsi        # b3173 <gconv_module_ext+0x72>
    a4e6:	48 8d 3d 83 e4 0a 00 	lea    0xae483(%rip),%rdi        # b8970 <gconv_conf_filename+0x90>
    a4ed:	e8 ae 4c 00 00       	call   f1a0 <__libc_assert_fail>
    a4f2:	48 8b 45 c8          	mov    -0x38(%rbp),%rax
    a4f6:	64 48 2b 04 25 28 00 	sub    %fs:0x28,%rax
    a4fd:	00 00 
    a4ff:	74 06                	je     a507 <__gconv_transform_ucs2_internal.cold+0x16b>
    a501:	67 e8 69 bb 03 00    	addr32 call 46070 <__stack_chk_fail>
    a507:	48 8d 0d d2 17 0b 00 	lea    0xb17d2(%rip),%rcx        # bbce0 <__PRETTY_FUNCTION__.7>
    a50e:	ba d3 01 00 00       	mov    $0x1d3,%edx
    a513:	48 8d 35 fb 8b 0a 00 	lea    0xa8bfb(%rip),%rsi        # b3115 <gconv_module_ext+0x14>
    a51a:	48 8d 3d 08 8c 0a 00 	lea    0xa8c08(%rip),%rdi        # b3129 <gconv_module_ext+0x28>
    a521:	e8 7a 4c 00 00       	call   f1a0 <__libc_assert_fail>

000000000000a526 <__gconv_transform_internal_ucs2.cold>:
    a526:	48 8b 45 c8          	mov    -0x38(%rbp),%rax
    a52a:	64 48 2b 04 25 28 00 	sub    %fs:0x28,%rax
    a531:	00 00 
    a533:	75 5c                	jne    a591 <__gconv_transform_internal_ucs2.cold+0x6b>
    a535:	48 8d 0d 84 17 0b 00 	lea    0xb1784(%rip),%rcx        # bbcc0 <__PRETTY_FUNCTION__.5>
    a53c:	ba d3 01 00 00       	mov    $0x1d3,%edx
    a541:	48 8d 35 cd 8b 0a 00 	lea    0xa8bcd(%rip),%rsi        # b3115 <gconv_module_ext+0x14>
    a548:	48 8d 3d da 8b 0a 00 	lea    0xa8bda(%rip),%rdi        # b3129 <gconv_module_ext+0x28>
    a54f:	e8 4c 4c 00 00       	call   f1a0 <__libc_assert_fail>
    a554:	48 8b 45 c8          	mov    -0x38(%rbp),%rax
    a558:	64 48 2b 04 25 28 00 	sub    %fs:0x28,%rax
    a55f:	00 00 
    a561:	75 2e                	jne    a591 <__gconv_transform_internal_ucs2.cold+0x6b>
    a563:	48 8d 0d 96 0c 0b 00 	lea    0xb0c96(%rip),%rcx        # bb200 <__PRETTY_FUNCTION__.4>
    a56a:	ba 37 01 00 00       	mov    $0x137,%edx
    a56f:	48 8d 35 fd 8b 0a 00 	lea    0xa8bfd(%rip),%rsi        # b3173 <gconv_module_ext+0x72>
    a576:	48 8d 3d f3 e3 0a 00 	lea    0xae3f3(%rip),%rdi        # b8970 <gconv_conf_filename+0x90>
    a57d:	e8 1e 4c 00 00       	call   f1a0 <__libc_assert_fail>
    a582:	48 8b 45 c8          	mov    -0x38(%rbp),%rax
    a586:	64 48 2b 04 25 28 00 	sub    %fs:0x28,%rax
    a58d:	00 00 
    a58f:	74 62                	je     a5f3 <__gconv_transform_internal_ucs2.cold+0xcd>
    a591:	67 e8 d9 ba 03 00    	addr32 call 46070 <__stack_chk_fail>
    a597:	48 8b 45 c8          	mov    -0x38(%rbp),%rax
    a59b:	64 48 2b 04 25 28 00 	sub    %fs:0x28,%rax
    a5a2:	00 00 
    a5a4:	75 eb                	jne    a591 <__gconv_transform_internal_ucs2.cold+0x6b>
    a5a6:	48 8d 0d 53 0c 0b 00 	lea    0xb0c53(%rip),%rcx        # bb200 <__PRETTY_FUNCTION__.4>
    a5ad:	ba 83 01 00 00       	mov    $0x183,%edx
    a5b2:	48 8d 35 ba 8b 0a 00 	lea    0xa8bba(%rip),%rsi        # b3173 <gconv_module_ext+0x72>
    a5b9:	48 8d 3d 10 e4 0a 00 	lea    0xae410(%rip),%rdi        # b89d0 <gconv_conf_filename+0xf0>
    a5c0:	e8 db 4b 00 00       	call   f1a0 <__libc_assert_fail>
    a5c5:	48 8b 45 c8          	mov    -0x38(%rbp),%rax
    a5c9:	64 48 2b 04 25 28 00 	sub    %fs:0x28,%rax
    a5d0:	00 00 
    a5d2:	75 bd                	jne    a591 <__gconv_transform_internal_ucs2.cold+0x6b>
    a5d4:	48 8d 0d e5 16 0b 00 	lea    0xb16e5(%rip),%rcx        # bbcc0 <__PRETTY_FUNCTION__.5>
    a5db:	ba 5e 01 00 00       	mov    $0x15e,%edx
    a5e0:	48 8d 35 2e 8b 0a 00 	lea    0xa8b2e(%rip),%rsi        # b3115 <gconv_module_ext+0x14>
    a5e7:	48 8d 3d 3b 8b 0a 00 	lea    0xa8b3b(%rip),%rdi        # b3129 <gconv_module_ext+0x28>
    a5ee:	e8 ad 4b 00 00       	call   f1a0 <__libc_assert_fail>
    a5f3:	48 8d 0d c6 16 0b 00 	lea    0xb16c6(%rip),%rcx        # bbcc0 <__PRETTY_FUNCTION__.5>
    a5fa:	ba 87 02 00 00       	mov    $0x287,%edx
    a5ff:	48 8d 35 0f 8b 0a 00 	lea    0xa8b0f(%rip),%rsi        # b3115 <gconv_module_ext+0x14>
    a606:	48 8d 3d 2b e3 0a 00 	lea    0xae32b(%rip),%rdi        # b8938 <gconv_conf_filename+0x58>
    a60d:	e8 8e 4b 00 00       	call   f1a0 <__libc_assert_fail>
    a612:	48 8b 45 c8          	mov    -0x38(%rbp),%rax
    a616:	64 48 2b 04 25 28 00 	sub    %fs:0x28,%rax
    a61d:	00 00 
    a61f:	0f 85 6c ff ff ff    	jne    a591 <__gconv_transform_internal_ucs2.cold+0x6b>
    a625:	48 8d 0d d4 0b 0b 00 	lea    0xb0bd4(%rip),%rcx        # bb200 <__PRETTY_FUNCTION__.4>
    a62c:	ba 54 01 00 00       	mov    $0x154,%edx
    a631:	48 8d 35 3b 8b 0a 00 	lea    0xa8b3b(%rip),%rsi        # b3173 <gconv_module_ext+0x72>
    a638:	48 8d 3d 61 e3 0a 00 	lea    0xae361(%rip),%rdi        # b89a0 <gconv_conf_filename+0xc0>
    a63f:	e8 5c 4b 00 00       	call   f1a0 <__libc_assert_fail>
    a644:	48 8b 45 c8          	mov    -0x38(%rbp),%rax
    a648:	64 48 2b 04 25 28 00 	sub    %fs:0x28,%rax
    a64f:	00 00 
    a651:	0f 85 3a ff ff ff    	jne    a591 <__gconv_transform_internal_ucs2.cold+0x6b>
    a657:	48 8d 0d a2 0b 0b 00 	lea    0xb0ba2(%rip),%rcx        # bb200 <__PRETTY_FUNCTION__.4>
    a65e:	ba 95 01 00 00       	mov    $0x195,%edx
    a663:	48 8d 35 09 8b 0a 00 	lea    0xa8b09(%rip),%rsi        # b3173 <gconv_module_ext+0x72>
    a66a:	48 8d 3d 87 e3 0a 00 	lea    0xae387(%rip),%rdi        # b89f8 <gconv_conf_filename+0x118>
    a671:	e8 2a 4b 00 00       	call   f1a0 <__libc_assert_fail>
    a676:	48 8b 45 c8          	mov    -0x38(%rbp),%rax
    a67a:	64 48 2b 04 25 28 00 	sub    %fs:0x28,%rax
    a681:	00 00 
    a683:	0f 85 08 ff ff ff    	jne    a591 <__gconv_transform_internal_ucs2.cold+0x6b>
    a689:	48 8d 0d 70 0b 0b 00 	lea    0xb0b70(%rip),%rcx        # bb200 <__PRETTY_FUNCTION__.4>
    a690:	ba a0 01 00 00       	mov    $0x1a0,%edx
    a695:	48 8d 35 d7 8a 0a 00 	lea    0xa8ad7(%rip),%rsi        # b3173 <gconv_module_ext+0x72>
    a69c:	48 8d 3d a5 e3 0a 00 	lea    0xae3a5(%rip),%rdi        # b8a48 <gconv_conf_filename+0x168>
    a6a3:	e8 f8 4a 00 00       	call   f1a0 <__libc_assert_fail>
    a6a8:	48 8b 45 c8          	mov    -0x38(%rbp),%rax
    a6ac:	64 48 2b 04 25 28 00 	sub    %fs:0x28,%rax
    a6b3:	00 00 
    a6b5:	0f 85 d6 fe ff ff    	jne    a591 <__gconv_transform_internal_ucs2.cold+0x6b>
    a6bb:	48 8d 0d 3e 0b 0b 00 	lea    0xb0b3e(%rip),%rcx        # bb200 <__PRETTY_FUNCTION__.4>
    a6c2:	ba 9f 01 00 00       	mov    $0x19f,%edx
    a6c7:	48 8d 35 a5 8a 0a 00 	lea    0xa8aa5(%rip),%rsi        # b3173 <gconv_module_ext+0x72>
    a6ce:	48 8d 3d 4b e3 0a 00 	lea    0xae34b(%rip),%rdi        # b8a20 <gconv_conf_filename+0x140>
    a6d5:	e8 c6 4a 00 00       	call   f1a0 <__libc_assert_fail>
    a6da:	48 8b 45 c8          	mov    -0x38(%rbp),%rax
    a6de:	64 48 2b 04 25 28 00 	sub    %fs:0x28,%rax
    a6e5:	00 00 
    a6e7:	0f 85 a4 fe ff ff    	jne    a591 <__gconv_transform_internal_ucs2.cold+0x6b>
    a6ed:	48 8d 0d cc 15 0b 00 	lea    0xb15cc(%rip),%rcx        # bbcc0 <__PRETTY_FUNCTION__.5>
    a6f4:	ba 52 02 00 00       	mov    $0x252,%edx
    a6f9:	48 8d 35 15 8a 0a 00 	lea    0xa8a15(%rip),%rsi        # b3115 <gconv_module_ext+0x14>
    a700:	48 8d 3d 36 8a 0a 00 	lea    0xa8a36(%rip),%rdi        # b313d <gconv_module_ext+0x3c>
    a707:	e8 94 4a 00 00       	call   f1a0 <__libc_assert_fail>
    a70c:	48 8b 45 c8          	mov    -0x38(%rbp),%rax
    a710:	64 48 2b 04 25 28 00 	sub    %fs:0x28,%rax
    a717:	00 00 
    a719:	0f 85 72 fe ff ff    	jne    a591 <__gconv_transform_internal_ucs2.cold+0x6b>
    a71f:	48 8d 0d 9a 15 0b 00 	lea    0xb159a(%rip),%rcx        # bbcc0 <__PRETTY_FUNCTION__.5>
    a726:	ba 53 02 00 00       	mov    $0x253,%edx
    a72b:	48 8d 35 e3 89 0a 00 	lea    0xa89e3(%rip),%rsi        # b3115 <gconv_module_ext+0x14>
    a732:	48 8d 3d df e1 0a 00 	lea    0xae1df(%rip),%rdi        # b8918 <gconv_conf_filename+0x38>
    a739:	e8 62 4a 00 00       	call   f1a0 <__libc_assert_fail>

000000000000a73e <__gconv_transform_ucs2reverse_internal.cold>:
    a73e:	48 8b 45 c8          	mov    -0x38(%rbp),%rax
    a742:	64 48 2b 04 25 28 00 	sub    %fs:0x28,%rax
    a749:	00 00 
    a74b:	0f 85 71 01 00 00    	jne    a8c2 <__gconv_transform_ucs2reverse_internal.cold+0x184>
    a751:	48 8d 0d e8 14 0b 00 	lea    0xb14e8(%rip),%rcx        # bbc40 <__PRETTY_FUNCTION__.2>
    a758:	ba 54 01 00 00       	mov    $0x154,%edx
    a75d:	48 8d 35 0f 8a 0a 00 	lea    0xa8a0f(%rip),%rsi        # b3173 <gconv_module_ext+0x72>
    a764:	48 8d 3d 35 e2 0a 00 	lea    0xae235(%rip),%rdi        # b89a0 <gconv_conf_filename+0xc0>
    a76b:	e8 30 4a 00 00       	call   f1a0 <__libc_assert_fail>
    a770:	48 8b 45 c8          	mov    -0x38(%rbp),%rax
    a774:	64 48 2b 04 25 28 00 	sub    %fs:0x28,%rax
    a77b:	00 00 
    a77d:	0f 85 3f 01 00 00    	jne    a8c2 <__gconv_transform_ucs2reverse_internal.cold+0x184>
    a783:	48 8d 0d f6 14 0b 00 	lea    0xb14f6(%rip),%rcx        # bbc80 <__PRETTY_FUNCTION__.3>
    a78a:	ba 5e 01 00 00       	mov    $0x15e,%edx
    a78f:	48 8d 35 7f 89 0a 00 	lea    0xa897f(%rip),%rsi        # b3115 <gconv_module_ext+0x14>
    a796:	48 8d 3d 8c 89 0a 00 	lea    0xa898c(%rip),%rdi        # b3129 <gconv_module_ext+0x28>
    a79d:	e8 fe 49 00 00       	call   f1a0 <__libc_assert_fail>
    a7a2:	48 8b 45 c8          	mov    -0x38(%rbp),%rax
    a7a6:	64 48 2b 04 25 28 00 	sub    %fs:0x28,%rax
    a7ad:	00 00 
    a7af:	0f 85 0d 01 00 00    	jne    a8c2 <__gconv_transform_ucs2reverse_internal.cold+0x184>
    a7b5:	48 8d 0d c4 14 0b 00 	lea    0xb14c4(%rip),%rcx        # bbc80 <__PRETTY_FUNCTION__.3>
    a7bc:	ba 52 02 00 00       	mov    $0x252,%edx
    a7c1:	48 8d 35 4d 89 0a 00 	lea    0xa894d(%rip),%rsi        # b3115 <gconv_module_ext+0x14>
    a7c8:	48 8d 3d 6e 89 0a 00 	lea    0xa896e(%rip),%rdi        # b313d <gconv_module_ext+0x3c>
    a7cf:	e8 cc 49 00 00       	call   f1a0 <__libc_assert_fail>
    a7d4:	48 8b 45 c8          	mov    -0x38(%rbp),%rax
    a7d8:	64 48 2b 04 25 28 00 	sub    %fs:0x28,%rax
    a7df:	00 00 
    a7e1:	0f 85 db 00 00 00    	jne    a8c2 <__gconv_transform_ucs2reverse_internal.cold+0x184>
    a7e7:	48 8d 0d 92 14 0b 00 	lea    0xb1492(%rip),%rcx        # bbc80 <__PRETTY_FUNCTION__.3>
    a7ee:	ba 87 02 00 00       	mov    $0x287,%edx
    a7f3:	48 8d 35 1b 89 0a 00 	lea    0xa891b(%rip),%rsi        # b3115 <gconv_module_ext+0x14>
    a7fa:	48 8d 3d 37 e1 0a 00 	lea    0xae137(%rip),%rdi        # b8938 <gconv_conf_filename+0x58>
    a801:	e8 9a 49 00 00       	call   f1a0 <__libc_assert_fail>
    a806:	48 8b 45 c8          	mov    -0x38(%rbp),%rax
    a80a:	64 48 2b 04 25 28 00 	sub    %fs:0x28,%rax
    a811:	00 00 
    a813:	0f 85 a9 00 00 00    	jne    a8c2 <__gconv_transform_ucs2reverse_internal.cold+0x184>
    a819:	48 8d 0d 20 14 0b 00 	lea    0xb1420(%rip),%rcx        # bbc40 <__PRETTY_FUNCTION__.2>
    a820:	ba 83 01 00 00       	mov    $0x183,%edx
    a825:	48 8d 35 47 89 0a 00 	lea    0xa8947(%rip),%rsi        # b3173 <gconv_module_ext+0x72>
    a82c:	48 8d 3d 9d e1 0a 00 	lea    0xae19d(%rip),%rdi        # b89d0 <gconv_conf_filename+0xf0>
    a833:	e8 68 49 00 00       	call   f1a0 <__libc_assert_fail>
    a838:	48 8b 45 c8          	mov    -0x38(%rbp),%rax
    a83c:	64 48 2b 04 25 28 00 	sub    %fs:0x28,%rax
    a843:	00 00 
    a845:	75 7b                	jne    a8c2 <__gconv_transform_ucs2reverse_internal.cold+0x184>
    a847:	48 8d 0d f2 13 0b 00 	lea    0xb13f2(%rip),%rcx        # bbc40 <__PRETTY_FUNCTION__.2>
    a84e:	ba 37 01 00 00       	mov    $0x137,%edx
    a853:	48 8d 35 19 89 0a 00 	lea    0xa8919(%rip),%rsi        # b3173 <gconv_module_ext+0x72>
    a85a:	48 8d 3d 0f e1 0a 00 	lea    0xae10f(%rip),%rdi        # b8970 <gconv_conf_filename+0x90>
    a861:	e8 3a 49 00 00       	call   f1a0 <__libc_assert_fail>
    a866:	48 8b 45 c8          	mov    -0x38(%rbp),%rax
    a86a:	64 48 2b 04 25 28 00 	sub    %fs:0x28,%rax
    a871:	00 00 
    a873:	75 4d                	jne    a8c2 <__gconv_transform_ucs2reverse_internal.cold+0x184>
    a875:	48 8d 0d 04 14 0b 00 	lea    0xb1404(%rip),%rcx        # bbc80 <__PRETTY_FUNCTION__.3>
    a87c:	ba d3 01 00 00       	mov    $0x1d3,%edx
    a881:	48 8d 35 8d 88 0a 00 	lea    0xa888d(%rip),%rsi        # b3115 <gconv_module_ext+0x14>
    a888:	48 8d 3d 9a 88 0a 00 	lea    0xa889a(%rip),%rdi        # b3129 <gconv_module_ext+0x28>
    a88f:	e8 0c 49 00 00       	call   f1a0 <__libc_assert_fail>
    a894:	48 8b 45 c8          	mov    -0x38(%rbp),%rax
    a898:	64 48 2b 04 25 28 00 	sub    %fs:0x28,%rax
    a89f:	00 00 
    a8a1:	75 1f                	jne    a8c2 <__gconv_transform_ucs2reverse_internal.cold+0x184>
    a8a3:	48 8d 0d d6 13 0b 00 	lea    0xb13d6(%rip),%rcx        # bbc80 <__PRETTY_FUNCTION__.3>
    a8aa:	ba 53 02 00 00       	mov    $0x253,%edx
    a8af:	48 8d 35 5f 88 0a 00 	lea    0xa885f(%rip),%rsi        # b3115 <gconv_module_ext+0x14>
    a8b6:	48 8d 3d 5b e0 0a 00 	lea    0xae05b(%rip),%rdi        # b8918 <gconv_conf_filename+0x38>
    a8bd:	e8 de 48 00 00       	call   f1a0 <__libc_assert_fail>
    a8c2:	67 e8 a8 b7 03 00    	addr32 call 46070 <__stack_chk_fail>

000000000000a8c8 <__gconv_transform_internal_ucs2reverse.cold>:
    a8c8:	48 8b 45 c8          	mov    -0x38(%rbp),%rax
    a8cc:	64 48 2b 04 25 28 00 	sub    %fs:0x28,%rax
    a8d3:	00 00 
    a8d5:	75 60                	jne    a937 <__gconv_transform_internal_ucs2reverse.cold+0x6f>
    a8d7:	48 8d 0d 22 13 0b 00 	lea    0xb1322(%rip),%rcx        # bbc00 <__PRETTY_FUNCTION__.1>
    a8de:	ba d3 01 00 00       	mov    $0x1d3,%edx
    a8e3:	48 8d 35 2b 88 0a 00 	lea    0xa882b(%rip),%rsi        # b3115 <gconv_module_ext+0x14>
    a8ea:	48 8d 3d 38 88 0a 00 	lea    0xa8838(%rip),%rdi        # b3129 <gconv_module_ext+0x28>
    a8f1:	e8 aa 48 00 00       	call   f1a0 <__libc_assert_fail>
    a8f6:	48 8b 45 c8          	mov    -0x38(%rbp),%rax
    a8fa:	64 48 2b 04 25 28 00 	sub    %fs:0x28,%rax
    a901:	00 00 
    a903:	75 32                	jne    a937 <__gconv_transform_internal_ucs2reverse.cold+0x6f>
    a905:	48 8d 0d b4 12 0b 00 	lea    0xb12b4(%rip),%rcx        # bbbc0 <__PRETTY_FUNCTION__.0>
    a90c:	ba 37 01 00 00       	mov    $0x137,%edx
    a911:	48 8d 35 5b 88 0a 00 	lea    0xa885b(%rip),%rsi        # b3173 <gconv_module_ext+0x72>
    a918:	48 8d 3d 51 e0 0a 00 	lea    0xae051(%rip),%rdi        # b8970 <gconv_conf_filename+0x90>
    a91f:	e8 7c 48 00 00       	call   f1a0 <__libc_assert_fail>
    a924:	48 8b 45 c8          	mov    -0x38(%rbp),%rax
    a928:	64 48 2b 04 25 28 00 	sub    %fs:0x28,%rax
    a92f:	00 00 
    a931:	0f 84 90 00 00 00    	je     a9c7 <__gconv_transform_internal_ucs2reverse.cold+0xff>
    a937:	67 e8 33 b7 03 00    	addr32 call 46070 <__stack_chk_fail>
    a93d:	48 8b 45 c8          	mov    -0x38(%rbp),%rax
    a941:	64 48 2b 04 25 28 00 	sub    %fs:0x28,%rax
    a948:	00 00 
    a94a:	75 eb                	jne    a937 <__gconv_transform_internal_ucs2reverse.cold+0x6f>
    a94c:	48 8d 0d ad 12 0b 00 	lea    0xb12ad(%rip),%rcx        # bbc00 <__PRETTY_FUNCTION__.1>
    a953:	ba 53 02 00 00       	mov    $0x253,%edx
    a958:	48 8d 35 b6 87 0a 00 	lea    0xa87b6(%rip),%rsi        # b3115 <gconv_module_ext+0x14>
    a95f:	48 8d 3d b2 df 0a 00 	lea    0xadfb2(%rip),%rdi        # b8918 <gconv_conf_filename+0x38>
    a966:	e8 35 48 00 00       	call   f1a0 <__libc_assert_fail>
    a96b:	48 8b 45 c8          	mov    -0x38(%rbp),%rax
    a96f:	64 48 2b 04 25 28 00 	sub    %fs:0x28,%rax
    a976:	00 00 
    a978:	75 bd                	jne    a937 <__gconv_transform_internal_ucs2reverse.cold+0x6f>
    a97a:	48 8d 0d 7f 12 0b 00 	lea    0xb127f(%rip),%rcx        # bbc00 <__PRETTY_FUNCTION__.1>
    a981:	ba 52 02 00 00       	mov    $0x252,%edx
    a986:	48 8d 35 88 87 0a 00 	lea    0xa8788(%rip),%rsi        # b3115 <gconv_module_ext+0x14>
    a98d:	48 8d 3d a9 87 0a 00 	lea    0xa87a9(%rip),%rdi        # b313d <gconv_module_ext+0x3c>
    a994:	e8 07 48 00 00       	call   f1a0 <__libc_assert_fail>
    a999:	48 8b 45 c8          	mov    -0x38(%rbp),%rax
    a99d:	64 48 2b 04 25 28 00 	sub    %fs:0x28,%rax
    a9a4:	00 00 
    a9a6:	75 8f                	jne    a937 <__gconv_transform_internal_ucs2reverse.cold+0x6f>
    a9a8:	48 8d 0d 11 12 0b 00 	lea    0xb1211(%rip),%rcx        # bbbc0 <__PRETTY_FUNCTION__.0>
    a9af:	ba 54 01 00 00       	mov    $0x154,%edx
    a9b4:	48 8d 35 b8 87 0a 00 	lea    0xa87b8(%rip),%rsi        # b3173 <gconv_module_ext+0x72>
    a9bb:	48 8d 3d de df 0a 00 	lea    0xadfde(%rip),%rdi        # b89a0 <gconv_conf_filename+0xc0>
    a9c2:	e8 d9 47 00 00       	call   f1a0 <__libc_assert_fail>
    a9c7:	48 8d 0d 32 12 0b 00 	lea    0xb1232(%rip),%rcx        # bbc00 <__PRETTY_FUNCTION__.1>
    a9ce:	ba 87 02 00 00       	mov    $0x287,%edx
    a9d3:	48 8d 35 3b 87 0a 00 	lea    0xa873b(%rip),%rsi        # b3115 <gconv_module_ext+0x14>
    a9da:	48 8d 3d 57 df 0a 00 	lea    0xadf57(%rip),%rdi        # b8938 <gconv_conf_filename+0x58>
    a9e1:	e8 ba 47 00 00       	call   f1a0 <__libc_assert_fail>
    a9e6:	48 8b 45 c8          	mov    -0x38(%rbp),%rax
    a9ea:	64 48 2b 04 25 28 00 	sub    %fs:0x28,%rax
    a9f1:	00 00 
    a9f3:	0f 85 3e ff ff ff    	jne    a937 <__gconv_transform_internal_ucs2reverse.cold+0x6f>
    a9f9:	48 8d 0d c0 11 0b 00 	lea    0xb11c0(%rip),%rcx        # bbbc0 <__PRETTY_FUNCTION__.0>
    aa00:	ba 83 01 00 00       	mov    $0x183,%edx
    aa05:	48 8d 35 67 87 0a 00 	lea    0xa8767(%rip),%rsi        # b3173 <gconv_module_ext+0x72>
    aa0c:	48 8d 3d bd df 0a 00 	lea    0xadfbd(%rip),%rdi        # b89d0 <gconv_conf_filename+0xf0>
    aa13:	e8 88 47 00 00       	call   f1a0 <__libc_assert_fail>
    aa18:	48 8b 45 c8          	mov    -0x38(%rbp),%rax
    aa1c:	64 48 2b 04 25 28 00 	sub    %fs:0x28,%rax
    aa23:	00 00 
    aa25:	0f 85 0c ff ff ff    	jne    a937 <__gconv_transform_internal_ucs2reverse.cold+0x6f>
    aa2b:	48 8d 0d ce 11 0b 00 	lea    0xb11ce(%rip),%rcx        # bbc00 <__PRETTY_FUNCTION__.1>
    aa32:	ba 5e 01 00 00       	mov    $0x15e,%edx
    aa37:	48 8d 35 d7 86 0a 00 	lea    0xa86d7(%rip),%rsi        # b3115 <gconv_module_ext+0x14>
    aa3e:	48 8d 3d e4 86 0a 00 	lea    0xa86e4(%rip),%rdi        # b3129 <gconv_module_ext+0x28>
    aa45:	e8 56 47 00 00       	call   f1a0 <__libc_assert_fail>
    aa4a:	48 8b 45 c8          	mov    -0x38(%rbp),%rax
    aa4e:	64 48 2b 04 25 28 00 	sub    %fs:0x28,%rax
    aa55:	00 00 
    aa57:	0f 85 da fe ff ff    	jne    a937 <__gconv_transform_internal_ucs2reverse.cold+0x6f>
    aa5d:	48 8d 0d 5c 11 0b 00 	lea    0xb115c(%rip),%rcx        # bbbc0 <__PRETTY_FUNCTION__.0>
    aa64:	ba a0 01 00 00       	mov    $0x1a0,%edx
    aa69:	48 8d 35 03 87 0a 00 	lea    0xa8703(%rip),%rsi        # b3173 <gconv_module_ext+0x72>
    aa70:	48 8d 3d d1 df 0a 00 	lea    0xadfd1(%rip),%rdi        # b8a48 <gconv_conf_filename+0x168>
    aa77:	e8 24 47 00 00       	call   f1a0 <__libc_assert_fail>
    aa7c:	48 8b 45 c8          	mov    -0x38(%rbp),%rax
    aa80:	64 48 2b 04 25 28 00 	sub    %fs:0x28,%rax
    aa87:	00 00 
    aa89:	0f 85 a8 fe ff ff    	jne    a937 <__gconv_transform_internal_ucs2reverse.cold+0x6f>
    aa8f:	48 8d 0d 2a 11 0b 00 	lea    0xb112a(%rip),%rcx        # bbbc0 <__PRETTY_FUNCTION__.0>
    aa96:	ba 9f 01 00 00       	mov    $0x19f,%edx
    aa9b:	48 8d 35 d1 86 0a 00 	lea    0xa86d1(%rip),%rsi        # b3173 <gconv_module_ext+0x72>
    aaa2:	48 8d 3d 77 df 0a 00 	lea    0xadf77(%rip),%rdi        # b8a20 <gconv_conf_filename+0x140>
    aaa9:	e8 f2 46 00 00       	call   f1a0 <__libc_assert_fail>
    aaae:	48 8b 45 c8          	mov    -0x38(%rbp),%rax
    aab2:	64 48 2b 04 25 28 00 	sub    %fs:0x28,%rax
    aab9:	00 00 
    aabb:	0f 85 76 fe ff ff    	jne    a937 <__gconv_transform_internal_ucs2reverse.cold+0x6f>
    aac1:	48 8d 0d f8 10 0b 00 	lea    0xb10f8(%rip),%rcx        # bbbc0 <__PRETTY_FUNCTION__.0>
    aac8:	ba 95 01 00 00       	mov    $0x195,%edx
    aacd:	48 8d 35 9f 86 0a 00 	lea    0xa869f(%rip),%rsi        # b3173 <gconv_module_ext+0x72>
    aad4:	48 8d 3d 1d df 0a 00 	lea    0xadf1d(%rip),%rdi        # b89f8 <gconv_conf_filename+0x118>
    aadb:	e8 c0 46 00 00       	call   f1a0 <__libc_assert_fail>

000000000000aae0 <_nl_load_domain.cold>:
    aae0:	e8 d9 e6 ff ff       	call   91be <abort>

000000000000aae5 <__qsort_r.cold>:
    aae5:	83 bd 90 fb ff ff 00 	cmpl   $0x0,-0x470(%rbp)
    aaec:	74 23                	je     ab11 <__qsort_r.cold+0x2c>
    aaee:	48 8b bd 88 fb ff ff 	mov    -0x478(%rbp),%rdi
    aaf5:	ff 95 80 fb ff ff    	call   *-0x480(%rbp)
    aafb:	31 c0                	xor    %eax,%eax
    aafd:	31 f6                	xor    %esi,%esi
    aaff:	48 8d bd 98 fb ff ff 	lea    -0x468(%rbp),%rdi
    ab06:	89 85 90 fb ff ff    	mov    %eax,-0x470(%rbp)
    ab0c:	e8 ef 3d 07 00       	call   7e900 <_pthread_cleanup_pop>
    ab11:	48 8b 45 c8          	mov    -0x38(%rbp),%rax
    ab15:	64 48 2b 04 25 28 00 	sub    %fs:0x28,%rax
    ab1c:	00 00 
    ab1e:	75 09                	jne    ab29 <__qsort_r.cold+0x44>
    ab20:	48 89 df             	mov    %rbx,%rdi
    ab23:	67 e8 97 10 0a 00    	addr32 call abbc0 <_Unwind_Resume>
    ab29:	67 e8 41 b5 03 00    	addr32 call 46070 <__stack_chk_fail>

000000000000ab2f <round_and_return.cold>:
    ab2f:	e8 8a e6 ff ff       	call   91be <abort>

000000000000ab34 <round_and_return.cold>:
    ab34:	e8 85 e6 ff ff       	call   91be <abort>

000000000000ab39 <round_and_return.cold>:
    ab39:	e8 80 e6 ff ff       	call   91be <abort>

000000000000ab3e <round_and_return.cold>:
    ab3e:	e8 7b e6 ff ff       	call   91be <abort>

000000000000ab43 <__printf_fp_buffer_1.isra.0.cold>:
    ab43:	e8 76 e6 ff ff       	call   91be <abort>

000000000000ab48 <__printf_fphex_buffer.cold>:
    ab48:	e8 71 e6 ff ff       	call   91be <abort>

000000000000ab4d <_IO_fputs.cold>:
    ab4d:	f6 43 01 80          	testb  $0x80,0x1(%rbx)
    ab51:	75 28                	jne    ab7b <_IO_fputs.cold+0x2e>
    ab53:	48 8b 93 88 00 00 00 	mov    0x88(%rbx),%rdx
    ab5a:	80 3d b7 a7 0e 00 00 	cmpb   $0x0,0xea7b7(%rip)        # f5318 <__libc_single_threaded>
    ab61:	8b 42 04             	mov    0x4(%rdx),%eax
    ab64:	74 1e                	je     ab84 <_IO_fputs.cold+0x37>
    ab66:	85 c0                	test   %eax,%eax
    ab68:	75 39                	jne    aba3 <_IO_fputs.cold+0x56>
    ab6a:	31 f6                	xor    %esi,%esi
    ab6c:	31 ff                	xor    %edi,%edi
    ab6e:	48 89 72 08          	mov    %rsi,0x8(%rdx)
    ab72:	48 8b 83 88 00 00 00 	mov    0x88(%rbx),%rax
    ab79:	89 38                	mov    %edi,(%rax)
    ab7b:	4c 89 e7             	mov    %r12,%rdi
    ab7e:	67 e8 3c 10 0a 00    	addr32 call abbc0 <_Unwind_Resume>
    ab84:	85 c0                	test   %eax,%eax
    ab86:	75 1b                	jne    aba3 <_IO_fputs.cold+0x56>
    ab88:	31 c9                	xor    %ecx,%ecx
    ab8a:	48 89 4a 08          	mov    %rcx,0x8(%rdx)
    ab8e:	48 8b bb 88 00 00 00 	mov    0x88(%rbx),%rdi
    ab95:	87 07                	xchg   %eax,(%rdi)
    ab97:	83 e8 01             	sub    $0x1,%eax
    ab9a:	7e df                	jle    ab7b <_IO_fputs.cold+0x2e>
    ab9c:	e8 0f ef 01 00       	call   29ab0 <__lll_lock_wake_private>
    aba1:	eb d8                	jmp    ab7b <_IO_fputs.cold+0x2e>
    aba3:	83 e8 01             	sub    $0x1,%eax
    aba6:	89 42 04             	mov    %eax,0x4(%rdx)
    aba9:	eb d0                	jmp    ab7b <_IO_fputs.cold+0x2e>

000000000000abab <__getdelim.cold>:
    abab:	f6 43 01 80          	testb  $0x80,0x1(%rbx)
    abaf:	75 28                	jne    abd9 <__getdelim.cold+0x2e>
    abb1:	48 8b 93 88 00 00 00 	mov    0x88(%rbx),%rdx
    abb8:	80 3d 59 a7 0e 00 00 	cmpb   $0x0,0xea759(%rip)        # f5318 <__libc_single_threaded>
    abbf:	8b 42 04             	mov    0x4(%rdx),%eax
    abc2:	74 1e                	je     abe2 <__getdelim.cold+0x37>
    abc4:	85 c0                	test   %eax,%eax
    abc6:	75 39                	jne    ac01 <__getdelim.cold+0x56>
    abc8:	31 f6                	xor    %esi,%esi
    abca:	31 ff                	xor    %edi,%edi
    abcc:	48 89 72 08          	mov    %rsi,0x8(%rdx)
    abd0:	48 8b 83 88 00 00 00 	mov    0x88(%rbx),%rax
    abd7:	89 38                	mov    %edi,(%rax)
    abd9:	4c 89 e7             	mov    %r12,%rdi
    abdc:	67 e8 de 0f 0a 00    	addr32 call abbc0 <_Unwind_Resume>
    abe2:	85 c0                	test   %eax,%eax
    abe4:	75 1b                	jne    ac01 <__getdelim.cold+0x56>
    abe6:	31 c9                	xor    %ecx,%ecx
    abe8:	48 89 4a 08          	mov    %rcx,0x8(%rdx)
    abec:	48 8b bb 88 00 00 00 	mov    0x88(%rbx),%rdi
    abf3:	87 07                	xchg   %eax,(%rdi)
    abf5:	83 e8 01             	sub    $0x1,%eax
    abf8:	7e df                	jle    abd9 <__getdelim.cold+0x2e>
    abfa:	e8 b1 ee 01 00       	call   29ab0 <__lll_lock_wake_private>
    abff:	eb d8                	jmp    abd9 <__getdelim.cold+0x2e>
    ac01:	83 e8 01             	sub    $0x1,%eax
    ac04:	89 42 04             	mov    %eax,0x4(%rdx)
    ac07:	eb d0                	jmp    abd9 <__getdelim.cold+0x2e>

000000000000ac09 <_IO_wfile_underflow.cold>:
    ac09:	41 f6 47 01 80       	testb  $0x80,0x1(%r15)
    ac0e:	75 2a                	jne    ac3a <_IO_wfile_underflow.cold+0x31>
    ac10:	49 8b 97 88 00 00 00 	mov    0x88(%r15),%rdx
    ac17:	80 3d fa a6 0e 00 00 	cmpb   $0x0,0xea6fa(%rip)        # f5318 <__libc_single_threaded>
    ac1e:	8b 42 04             	mov    0x4(%rdx),%eax
    ac21:	74 2f                	je     ac52 <_IO_wfile_underflow.cold+0x49>
    ac23:	85 c0                	test   %eax,%eax
    ac25:	75 4a                	jne    ac71 <_IO_wfile_underflow.cold+0x68>
    ac27:	31 ff                	xor    %edi,%edi
    ac29:	45 31 c0             	xor    %r8d,%r8d
    ac2c:	48 89 7a 08          	mov    %rdi,0x8(%rdx)
    ac30:	49 8b 87 88 00 00 00 	mov    0x88(%r15),%rax
    ac37:	44 89 00             	mov    %r8d,(%rax)
    ac3a:	48 8b 45 c8          	mov    -0x38(%rbp),%rax
    ac3e:	64 48 2b 04 25 28 00 	sub    %fs:0x28,%rax
    ac45:	00 00 
    ac47:	75 30                	jne    ac79 <_IO_wfile_underflow.cold+0x70>
    ac49:	48 89 df             	mov    %rbx,%rdi
    ac4c:	67 e8 6e 0f 0a 00    	addr32 call abbc0 <_Unwind_Resume>
    ac52:	85 c0                	test   %eax,%eax
    ac54:	75 1b                	jne    ac71 <_IO_wfile_underflow.cold+0x68>
    ac56:	31 f6                	xor    %esi,%esi
    ac58:	48 89 72 08          	mov    %rsi,0x8(%rdx)
    ac5c:	49 8b bf 88 00 00 00 	mov    0x88(%r15),%rdi
    ac63:	87 07                	xchg   %eax,(%rdi)
    ac65:	83 e8 01             	sub    $0x1,%eax
    ac68:	7e d0                	jle    ac3a <_IO_wfile_underflow.cold+0x31>
    ac6a:	e8 41 ee 01 00       	call   29ab0 <__lll_lock_wake_private>
    ac6f:	eb c9                	jmp    ac3a <_IO_wfile_underflow.cold+0x31>
    ac71:	83 e8 01             	sub    $0x1,%eax
    ac74:	89 42 04             	mov    %eax,0x4(%rdx)
    ac77:	eb c1                	jmp    ac3a <_IO_wfile_underflow.cold+0x31>
    ac79:	67 e8 f1 b3 03 00    	addr32 call 46070 <__stack_chk_fail>

000000000000ac7f <__pthread_once_slow.isra.0.cold>:
    ac7f:	83 7d c0 00          	cmpl   $0x0,-0x40(%rbp)
    ac83:	74 17                	je     ac9c <__pthread_once_slow.isra.0.cold+0x1d>
    ac85:	48 8b 7d b8          	mov    -0x48(%rbp),%rdi
    ac89:	ff 55 b0             	call   *-0x50(%rbp)
    ac8c:	31 c0                	xor    %eax,%eax
    ac8e:	31 f6                	xor    %esi,%esi
    ac90:	48 8d 7d c8          	lea    -0x38(%rbp),%rdi
    ac94:	89 45 c0             	mov    %eax,-0x40(%rbp)
    ac97:	e8 64 3c 07 00       	call   7e900 <_pthread_cleanup_pop>
    ac9c:	48 8b 45 e8          	mov    -0x18(%rbp),%rax
    aca0:	64 48 2b 04 25 28 00 	sub    %fs:0x28,%rax
    aca7:	00 00 
    aca9:	75 09                	jne    acb4 <__pthread_once_slow.isra.0.cold+0x35>
    acab:	4c 89 f7             	mov    %r14,%rdi
    acae:	67 e8 0c 0f 0a 00    	addr32 call abbc0 <_Unwind_Resume>
    acb4:	67 e8 b6 b3 03 00    	addr32 call 46070 <__stack_chk_fail>

000000000000acba <__sysconf.cold>:
    acba:	48 8b 45 d8          	mov    -0x28(%rbp),%rax
    acbe:	64 48 2b 04 25 28 00 	sub    %fs:0x28,%rax
    acc5:	00 00 
    acc7:	75 7b                	jne    ad44 <__sysconf.cold+0x8a>
    acc9:	48 8d 0d 30 09 0b 00 	lea    0xb0930(%rip),%rcx        # bb600 <__PRETTY_FUNCTION__.2>
    acd0:	ba 1a 00 00 00       	mov    $0x1a,%edx
    acd5:	48 8d 35 24 e9 0a 00 	lea    0xae924(%rip),%rsi        # b9600 <__PRETTY_FUNCTION__.2+0x798>
    acdc:	48 8d 3d b1 91 0a 00 	lea    0xa91b1(%rip),%rdi        # b3e94 <not_available+0xc34>
    ace3:	e8 b8 44 00 00       	call   f1a0 <__libc_assert_fail>
    ace8:	48 8b 45 d8          	mov    -0x28(%rbp),%rax
    acec:	64 48 2b 04 25 28 00 	sub    %fs:0x28,%rax
    acf3:	00 00 
    acf5:	75 4d                	jne    ad44 <__sysconf.cold+0x8a>
    acf7:	48 8d 0d 22 09 0b 00 	lea    0xb0922(%rip),%rcx        # bb620 <__PRETTY_FUNCTION__.1>
    acfe:	ba 19 00 00 00       	mov    $0x19,%edx
    ad03:	48 8d 35 c6 e8 0a 00 	lea    0xae8c6(%rip),%rsi        # b95d0 <__PRETTY_FUNCTION__.2+0x768>
    ad0a:	48 8d 3d 51 91 0a 00 	lea    0xa9151(%rip),%rdi        # b3e62 <not_available+0xc02>
    ad11:	e8 8a 44 00 00       	call   f1a0 <__libc_assert_fail>
    ad16:	48 8b 45 d8          	mov    -0x28(%rbp),%rax
    ad1a:	64 48 2b 04 25 28 00 	sub    %fs:0x28,%rax
    ad21:	00 00 
    ad23:	75 1f                	jne    ad44 <__sysconf.cold+0x8a>
    ad25:	48 8d 0d 0c e9 0a 00 	lea    0xae90c(%rip),%rcx        # b9638 <__PRETTY_FUNCTION__.0>
    ad2c:	ba 57 00 00 00       	mov    $0x57,%edx
    ad31:	48 8d 35 68 e8 0a 00 	lea    0xae868(%rip),%rsi        # b95a0 <__PRETTY_FUNCTION__.2+0x738>
    ad38:	48 8d 3d 05 91 0a 00 	lea    0xa9105(%rip),%rdi        # b3e44 <not_available+0xbe4>
    ad3f:	e8 5c 44 00 00       	call   f1a0 <__libc_assert_fail>
    ad44:	67 e8 26 b3 03 00    	addr32 call 46070 <__stack_chk_fail>

000000000000ad4a <_dl_find_object.cold>:
    ad4a:	48 8d 0d 2f 09 0b 00 	lea    0xb092f(%rip),%rcx        # bb680 <__PRETTY_FUNCTION__.2>
    ad51:	ba 2d 00 00 00       	mov    $0x2d,%edx
    ad56:	48 8d 35 b2 91 0a 00 	lea    0xa91b2(%rip),%rsi        # b3f0f <not_available+0xcaf>
    ad5d:	48 8d 3d bc 91 0a 00 	lea    0xa91bc(%rip),%rdi        # b3f20 <not_available+0xcc0>
    ad64:	e8 37 44 00 00       	call   f1a0 <__libc_assert_fail>

000000000000ad69 <_dl_find_object_update.cold>:
    ad69:	48 8d 0d f0 08 0b 00 	lea    0xb08f0(%rip),%rcx        # bb660 <__PRETTY_FUNCTION__.1>
    ad70:	ba f3 02 00 00       	mov    $0x2f3,%edx
    ad75:	48 8d 35 93 91 0a 00 	lea    0xa9193(%rip),%rsi        # b3f0f <not_available+0xcaf>
    ad7c:	48 8d 3d c5 91 0a 00 	lea    0xa91c5(%rip),%rdi        # b3f48 <not_available+0xce8>
    ad83:	e8 18 44 00 00       	call   f1a0 <__libc_assert_fail>
    ad88:	48 8d 0d d1 08 0b 00 	lea    0xb08d1(%rip),%rcx        # bb660 <__PRETTY_FUNCTION__.1>
    ad8f:	ba 1a 03 00 00       	mov    $0x31a,%edx
    ad94:	48 8d 35 74 91 0a 00 	lea    0xa9174(%rip),%rsi        # b3f0f <not_available+0xcaf>
    ad9b:	48 8d 3d bb 91 0a 00 	lea    0xa91bb(%rip),%rdi        # b3f5d <not_available+0xcfd>
    ada2:	e8 f9 43 00 00       	call   f1a0 <__libc_assert_fail>
    ada7:	48 8d 0d d2 10 0b 00 	lea    0xb10d2(%rip),%rcx        # bbe80 <__PRETTY_FUNCTION__.0>
    adae:	ba ec 00 00 00       	mov    $0xec,%edx
    adb3:	48 8d 35 55 91 0a 00 	lea    0xa9155(%rip),%rsi        # b3f0f <not_available+0xcaf>
    adba:	48 8d 3d 6d 91 0a 00 	lea    0xa916d(%rip),%rdi        # b3f2e <not_available+0xcce>
    adc1:	e8 da 43 00 00       	call   f1a0 <__libc_assert_fail>
    adc6:	48 8d 0d 93 08 0b 00 	lea    0xb0893(%rip),%rcx        # bb660 <__PRETTY_FUNCTION__.1>
    adcd:	ba 1d 03 00 00       	mov    $0x31d,%edx
    add2:	48 8d 35 36 91 0a 00 	lea    0xa9136(%rip),%rsi        # b3f0f <not_available+0xcaf>
    add9:	48 8d 3d 93 91 0a 00 	lea    0xa9193(%rip),%rdi        # b3f73 <not_available+0xd13>
    ade0:	e8 bb 43 00 00       	call   f1a0 <__libc_assert_fail>

000000000000ade5 <_dl_lookup_symbol_x.cold>:
    ade5:	48 8d 0d b4 08 0b 00 	lea    0xb08b4(%rip),%rcx        # bb6a0 <__PRETTY_FUNCTION__.1>
    adec:	ba 0b 03 00 00       	mov    $0x30b,%edx
    adf1:	48 8d 35 bd 91 0a 00 	lea    0xa91bd(%rip),%rsi        # b3fb5 <not_available+0xd55>
    adf8:	48 8d 3d 71 eb 0a 00 	lea    0xaeb71(%rip),%rdi        # b9970 <_dl_out_of_memory+0x220>
    adff:	e8 9c 43 00 00       	call   f1a0 <__libc_assert_fail>

000000000000ae04 <_dl_fixup.cold>:
    ae04:	48 8d 0d dd ee 0a 00 	lea    0xaeedd(%rip),%rcx        # b9ce8 <__PRETTY_FUNCTION__.0>
    ae0b:	ba 3f 00 00 00       	mov    $0x3f,%edx
    ae10:	48 8d 35 04 92 0a 00 	lea    0xa9204(%rip),%rsi        # b401b <not_available+0xdbb>
    ae17:	48 8d 3d 92 ee 0a 00 	lea    0xaee92(%rip),%rdi        # b9cb0 <_dl_out_of_memory+0x560>
    ae1e:	e8 7d 43 00 00       	call   f1a0 <__libc_assert_fail>

000000000000ae23 <__printf_buffer_flush.cold>:
    ae23:	0f 0b                	ud2    

000000000000ae25 <__wprintf_buffer_flush.cold>:
    ae25:	0f 0b                	ud2    

000000000000ae27 <__nptl_free_stacks.cold>:
    ae27:	e8 92 e3 ff ff       	call   91be <abort>

000000000000ae2c <remove_slotinfo.cold>:
    ae2c:	48 8d 0d 8d 09 0b 00 	lea    0xb098d(%rip),%rcx        # bb7c0 <__PRETTY_FUNCTION__.0>
    ae33:	ba 37 00 00 00       	mov    $0x37,%edx
    ae38:	48 8d 35 96 94 0a 00 	lea    0xa9496(%rip),%rsi        # b42d5 <slashdot.0+0x238>
    ae3f:	48 8d 3d 9a 94 0a 00 	lea    0xa949a(%rip),%rdi        # b42e0 <slashdot.0+0x243>
    ae46:	e8 55 43 00 00       	call   f1a0 <__libc_assert_fail>

000000000000ae4b <_dl_close_worker.cold>:
    ae4b:	48 8d 0d 7e 09 0b 00 	lea    0xb097e(%rip),%rcx        # bb7d0 <__PRETTY_FUNCTION__.1>
    ae52:	ba e3 00 00 00       	mov    $0xe3,%edx
    ae57:	48 8d 35 77 94 0a 00 	lea    0xa9477(%rip),%rsi        # b42d5 <slashdot.0+0x238>
    ae5e:	48 8d 3d c3 f1 0a 00 	lea    0xaf1c3(%rip),%rdi        # ba028 <__PRETTY_FUNCTION__.0+0x308>
    ae65:	e8 36 43 00 00       	call   f1a0 <__libc_assert_fail>
    ae6a:	48 8d 0d 5f 09 0b 00 	lea    0xb095f(%rip),%rcx        # bb7d0 <__PRETTY_FUNCTION__.1>
    ae71:	ba ca 00 00 00       	mov    $0xca,%edx
    ae76:	48 8d 35 58 94 0a 00 	lea    0xa9458(%rip),%rsi        # b42d5 <slashdot.0+0x238>
    ae7d:	48 8d 3d 74 f1 0a 00 	lea    0xaf174(%rip),%rdi        # b9ff8 <__PRETTY_FUNCTION__.0+0x2d8>
    ae84:	e8 17 43 00 00       	call   f1a0 <__libc_assert_fail>
    ae89:	48 8d 0d 40 09 0b 00 	lea    0xb0940(%rip),%rcx        # bb7d0 <__PRETTY_FUNCTION__.1>
    ae90:	ba f0 01 00 00       	mov    $0x1f0,%edx
    ae95:	48 8d 35 39 94 0a 00 	lea    0xa9439(%rip),%rsi        # b42d5 <slashdot.0+0x238>
    ae9c:	48 8d 3d a5 94 0a 00 	lea    0xa94a5(%rip),%rdi        # b4348 <slashdot.0+0x2ab>
    aea3:	e8 f8 42 00 00       	call   f1a0 <__libc_assert_fail>
    aea8:	48 8d 0d 21 09 0b 00 	lea    0xb0921(%rip),%rcx        # bb7d0 <__PRETTY_FUNCTION__.1>
    aeaf:	ba fe 00 00 00       	mov    $0xfe,%edx
    aeb4:	48 8d 35 1a 94 0a 00 	lea    0xa941a(%rip),%rsi        # b42d5 <slashdot.0+0x238>
    aebb:	48 8d 3d 3f 94 0a 00 	lea    0xa943f(%rip),%rdi        # b4301 <slashdot.0+0x264>
    aec2:	e8 d9 42 00 00       	call   f1a0 <__libc_assert_fail>
    aec7:	48 8d 0d 02 09 0b 00 	lea    0xb0902(%rip),%rcx        # bb7d0 <__PRETTY_FUNCTION__.1>
    aece:	ba 02 01 00 00       	mov    $0x102,%edx
    aed3:	48 8d 35 fb 93 0a 00 	lea    0xa93fb(%rip),%rsi        # b42d5 <slashdot.0+0x238>
    aeda:	48 8d 3d 77 f1 0a 00 	lea    0xaf177(%rip),%rdi        # ba058 <__PRETTY_FUNCTION__.0+0x338>
    aee1:	e8 ba 42 00 00       	call   f1a0 <__libc_assert_fail>
    aee6:	48 8d 0d e3 08 0b 00 	lea    0xb08e3(%rip),%rcx        # bb7d0 <__PRETTY_FUNCTION__.1>
    aeed:	ba 49 01 00 00       	mov    $0x149,%edx
    aef2:	48 8d 35 dc 93 0a 00 	lea    0xa93dc(%rip),%rsi        # b42d5 <slashdot.0+0x238>
    aef9:	48 8d 3d 14 94 0a 00 	lea    0xa9414(%rip),%rdi        # b4314 <slashdot.0+0x277>
    af00:	e8 9b 42 00 00       	call   f1a0 <__libc_assert_fail>
    af05:	48 8d 0d c4 08 0b 00 	lea    0xb08c4(%rip),%rcx        # bb7d0 <__PRETTY_FUNCTION__.1>
    af0c:	ba 7e 02 00 00       	mov    $0x27e,%edx
    af11:	48 8d 35 bd 93 0a 00 	lea    0xa93bd(%rip),%rsi        # b42d5 <slashdot.0+0x238>
    af18:	48 8d 3d d0 7b 0a 00 	lea    0xa7bd0(%rip),%rdi        # b2aef <__PRETTY_FUNCTION__.20+0x384>
    af1f:	e8 7c 42 00 00       	call   f1a0 <__libc_assert_fail>
    af24:	48 8d 0d a5 08 0b 00 	lea    0xb08a5(%rip),%rcx        # bb7d0 <__PRETTY_FUNCTION__.1>
    af2b:	ba 7f 02 00 00       	mov    $0x27f,%edx
    af30:	48 8d 35 9e 93 0a 00 	lea    0xa939e(%rip),%rsi        # b42d5 <slashdot.0+0x238>
    af37:	48 8d 3d 24 94 0a 00 	lea    0xa9424(%rip),%rdi        # b4362 <slashdot.0+0x2c5>
    af3e:	e8 5d 42 00 00       	call   f1a0 <__libc_assert_fail>
    af43:	48 8d 0d 86 08 0b 00 	lea    0xb0886(%rip),%rcx        # bb7d0 <__PRETTY_FUNCTION__.1>
    af4a:	ba 9a 00 00 00       	mov    $0x9a,%edx
    af4f:	48 8d 35 7f 93 0a 00 	lea    0xa937f(%rip),%rsi        # b42d5 <slashdot.0+0x238>
    af56:	48 8d 3d 95 93 0a 00 	lea    0xa9395(%rip),%rdi        # b42f2 <slashdot.0+0x255>
    af5d:	e8 3e 42 00 00       	call   f1a0 <__libc_assert_fail>

000000000000af62 <add_to_global_update.cold>:
    af62:	48 8d 0d 87 08 0b 00 	lea    0xb0887(%rip),%rcx        # bb7f0 <__PRETTY_FUNCTION__.0>
    af69:	ba c9 00 00 00       	mov    $0xc9,%edx
    af6e:	48 8d 35 19 94 0a 00 	lea    0xa9419(%rip),%rsi        # b438e <slashdot.0+0x2f1>
    af75:	48 8d 3d 14 f2 0a 00 	lea    0xaf214(%rip),%rdi        # ba190 <__PRETTY_FUNCTION__.0+0x470>
    af7c:	e8 1f 42 00 00       	call   f1a0 <__libc_assert_fail>
    af81:	48 8d 0d 68 08 0b 00 	lea    0xb0868(%rip),%rcx        # bb7f0 <__PRETTY_FUNCTION__.0>
    af88:	ba bb 00 00 00       	mov    $0xbb,%edx
    af8d:	48 8d 35 fa 93 0a 00 	lea    0xa93fa(%rip),%rsi        # b438e <slashdot.0+0x2f1>
    af94:	48 8d 3d ad f1 0a 00 	lea    0xaf1ad(%rip),%rdi        # ba148 <__PRETTY_FUNCTION__.0+0x428>
    af9b:	e8 00 42 00 00       	call   f1a0 <__libc_assert_fail>

000000000000afa0 <_dl_find_dso_for_object.cold>:
    afa0:	48 8d 0d a9 08 0b 00 	lea    0xb08a9(%rip),%rcx        # bb850 <__PRETTY_FUNCTION__.5>
    afa7:	ba df 00 00 00       	mov    $0xdf,%edx
    afac:	48 8d 35 db 93 0a 00 	lea    0xa93db(%rip),%rsi        # b438e <slashdot.0+0x2f1>
    afb3:	48 8d 3d 66 8f 0a 00 	lea    0xa8f66(%rip),%rdi        # b3f20 <not_available+0xcc0>
    afba:	e8 e1 41 00 00       	call   f1a0 <__libc_assert_fail>

000000000000afbf <_dl_open.cold>:
    afbf:	48 8d 0d 42 f3 0a 00 	lea    0xaf342(%rip),%rcx        # ba308 <__PRETTY_FUNCTION__.4>
    afc6:	ba b4 03 00 00       	mov    $0x3b4,%edx
    afcb:	48 8d 35 bc 93 0a 00 	lea    0xa93bc(%rip),%rsi        # b438e <slashdot.0+0x2f1>
    afd2:	48 8d 3d f4 93 0a 00 	lea    0xa93f4(%rip),%rdi        # b43cd <slashdot.0+0x330>
    afd9:	e8 c2 41 00 00       	call   f1a0 <__libc_assert_fail>

000000000000afde <dl_open_worker_begin.cold>:
    afde:	48 8d 0d 2b 08 0b 00 	lea    0xb082b(%rip),%rcx        # bb810 <__PRETTY_FUNCTION__.1>
    afe5:	ba 9c 01 00 00       	mov    $0x19c,%edx
    afea:	48 8d 35 9d 93 0a 00 	lea    0xa939d(%rip),%rsi        # b438e <slashdot.0+0x2f1>
    aff1:	48 8d 3d 77 94 0a 00 	lea    0xa9477(%rip),%rdi        # b446f <slashdot.0+0x3d2>
    aff8:	e8 a3 41 00 00       	call   f1a0 <__libc_assert_fail>
    affd:	48 8d 0d 2c 08 0b 00 	lea    0xb082c(%rip),%rcx        # bb830 <__PRETTY_FUNCTION__.3>
    b004:	ba 1e 02 00 00       	mov    $0x21e,%edx
    b009:	48 8d 35 7e 93 0a 00 	lea    0xa937e(%rip),%rsi        # b438e <slashdot.0+0x2f1>
    b010:	48 8d 3d f6 93 0a 00 	lea    0xa93f6(%rip),%rdi        # b440d <slashdot.0+0x370>
    b017:	e8 84 41 00 00       	call   f1a0 <__libc_assert_fail>
    b01c:	48 8d 0d d5 f2 0a 00 	lea    0xaf2d5(%rip),%rcx        # ba2f8 <__PRETTY_FUNCTION__.2>
    b023:	ba 52 01 00 00       	mov    $0x152,%edx
    b028:	48 8d 35 5f 93 0a 00 	lea    0xa935f(%rip),%rsi        # b438e <slashdot.0+0x2f1>
    b02f:	48 8d 3d 1d 94 0a 00 	lea    0xa941d(%rip),%rdi        # b4453 <slashdot.0+0x3b6>
    b036:	e8 65 41 00 00       	call   f1a0 <__libc_assert_fail>

000000000000b03b <uw_install_context_1.cold>:
    b03b:	67 e8 7d e1 ff ff    	addr32 call 91be <abort>

000000000000b041 <read_encoded_value.cold>:
    b041:	67 e8 77 e1 ff ff    	addr32 call 91be <abort>

000000000000b047 <execute_stack_op.cold>:
    b047:	67 e8 71 e1 ff ff    	addr32 call 91be <abort>
    b04d:	67 e8 6b e1 ff ff    	addr32 call 91be <abort>

000000000000b053 <uw_update_context_1.cold>:
    b053:	67 e8 65 e1 ff ff    	addr32 call 91be <abort>
    b059:	67 e8 5f e1 ff ff    	addr32 call 91be <abort>

000000000000b05f <execute_cfa_program_specialized.cold>:
    b05f:	67 e8 59 e1 ff ff    	addr32 call 91be <abort>

000000000000b065 <execute_cfa_program_generic.cold>:
    b065:	67 e8 53 e1 ff ff    	addr32 call 91be <abort>

000000000000b06b <uw_frame_state_for.cold>:
    b06b:	67 e8 4d e1 ff ff    	addr32 call 91be <abort>

000000000000b071 <uw_init_context_1.cold>:
    b071:	67 e8 47 e1 ff ff    	addr32 call 91be <abort>

000000000000b077 <_Unwind_RaiseException_Phase2.cold>:
    b077:	67 e8 41 e1 ff ff    	addr32 call 91be <abort>

000000000000b07d <_Unwind_ForcedUnwind_Phase2.cold>:
    b07d:	67 e8 3b e1 ff ff    	addr32 call 91be <abort>

000000000000b083 <_Unwind_GetGR.cold>:
    b083:	55                   	push   %rbp
    b084:	48 89 e5             	mov    %rsp,%rbp
    b087:	67 e8 31 e1 ff ff    	addr32 call 91be <abort>

000000000000b08d <_Unwind_SetGR.cold>:
    b08d:	55                   	push   %rbp
    b08e:	48 89 e5             	mov    %rsp,%rbp
    b091:	67 e8 27 e1 ff ff    	addr32 call 91be <abort>

000000000000b097 <_Unwind_RaiseException.cold>:
    b097:	67 e8 21 e1 ff ff    	addr32 call 91be <abort>

000000000000b09d <_Unwind_Resume.cold>:
    b09d:	67 e8 1b e1 ff ff    	addr32 call 91be <abort>

000000000000b0a3 <_Unwind_Resume_or_Rethrow.cold>:
    b0a3:	67 e8 15 e1 ff ff    	addr32 call 91be <abort>

000000000000b0a9 <_Unwind_Backtrace.cold>:
    b0a9:	67 e8 0f e1 ff ff    	addr32 call 91be <abort>

000000000000b0af <read_encoded_value_with_base.cold>:
    b0af:	55                   	push   %rbp
    b0b0:	48 89 e5             	mov    %rsp,%rbp
    b0b3:	67 e8 05 e1 ff ff    	addr32 call 91be <abort>

000000000000b0b9 <fde_mixed_encoding_extract.cold>:
    b0b9:	67 e8 ff e0 ff ff    	addr32 call 91be <abort>

000000000000b0bf <classify_object_over_fdes.cold>:
    b0bf:	67 e8 f9 e0 ff ff    	addr32 call 91be <abort>

000000000000b0c5 <__deregister_frame_info_bases.part.0.cold>:
    b0c5:	67 e8 f3 e0 ff ff    	addr32 call 91be <abort>

000000000000b0cb <fde_single_encoding_extract.cold>:
    b0cb:	67 e8 ed e0 ff ff    	addr32 call 91be <abort>

000000000000b0d1 <fde_single_encoding_compare.cold>:
    b0d1:	67 e8 e7 e0 ff ff    	addr32 call 91be <abort>

000000000000b0d7 <fde_mixed_encoding_compare.cold>:
    b0d7:	67 e8 e1 e0 ff ff    	addr32 call 91be <abort>

000000000000b0dd <add_fdes.isra.0.cold>:
    b0dd:	67 e8 db e0 ff ff    	addr32 call 91be <abort>

000000000000b0e3 <linear_search_fdes.cold>:
    b0e3:	67 e8 d5 e0 ff ff    	addr32 call 91be <abort>

000000000000b0e9 <_Unwind_Find_FDE.cold>:
    b0e9:	67 e8 cf e0 ff ff    	addr32 call 91be <abort>

000000000000b0ef <base_of_encoded_value.cold>:
    b0ef:	55                   	push   %rbp
    b0f0:	48 89 e5             	mov    %rsp,%rbp
    b0f3:	67 e8 c5 e0 ff ff    	addr32 call 91be <abort>

000000000000b0f9 <read_encoded_value_with_base.cold>:
    b0f9:	55                   	push   %rbp
    b0fa:	48 89 e5             	mov    %rsp,%rbp
    b0fd:	67 e8 bb e0 ff ff    	addr32 call 91be <abort>

000000000000b103 <__gcc_personality_v0.cold>:
    b103:	67 e8 b5 e0 ff ff    	addr32 call 91be <abort>
    b109:	0f 1f 80 00 00 00 00 	nopl   0x0(%rax)

000000000000b110 <btree_release_tree_recursively>:
    b110:	55                   	push   %rbp
    b111:	48 89 e5             	mov    %rsp,%rbp
    b114:	41 55                	push   %r13
    b116:	49 89 fd             	mov    %rdi,%r13
    b119:	48 89 f7             	mov    %rsi,%rdi
    b11c:	41 54                	push   %r12
    b11e:	53                   	push   %rbx
    b11f:	48 89 f3             	mov    %rsi,%rbx
    b122:	48 83 ec 08          	sub    $0x8,%rsp
    b126:	e8 65 10 0a 00       	call   ac190 <version_lock_lock_exclusive>
    b12b:	44 8b 63 0c          	mov    0xc(%rbx),%r12d
    b12f:	45 85 e4             	test   %r12d,%r12d
    b132:	75 25                	jne    b159 <btree_release_tree_recursively+0x49>
    b134:	8b 43 08             	mov    0x8(%rbx),%eax
    b137:	85 c0                	test   %eax,%eax
    b139:	74 1e                	je     b159 <btree_release_tree_recursively+0x49>
    b13b:	44 89 e0             	mov    %r12d,%eax
    b13e:	4c 89 ef             	mov    %r13,%rdi
    b141:	41 83 c4 01          	add    $0x1,%r12d
    b145:	48 c1 e0 04          	shl    $0x4,%rax
    b149:	48 8b 74 18 18       	mov    0x18(%rax,%rbx,1),%rsi
    b14e:	e8 bd ff ff ff       	call   b110 <btree_release_tree_recursively>
    b153:	44 3b 63 08          	cmp    0x8(%rbx),%r12d
    b157:	72 e2                	jb     b13b <btree_release_tree_recursively+0x2b>
    b159:	c7 43 0c 02 00 00 00 	movl   $0x2,0xc(%rbx)
    b160:	49 8d 55 08          	lea    0x8(%r13),%rdx
    b164:	49 8b 45 08          	mov    0x8(%r13),%rax
    b168:	48 89 43 18          	mov    %rax,0x18(%rbx)
    b16c:	f0 48 0f b1 1a       	lock cmpxchg %rbx,(%rdx)
    b171:	75 f5                	jne    b168 <btree_release_tree_recursively+0x58>
    b173:	48 83 c4 08          	add    $0x8,%rsp
    b177:	48 89 df             	mov    %rbx,%rdi
    b17a:	5b                   	pop    %rbx
    b17b:	41 5c                	pop    %r12
    b17d:	41 5d                	pop    %r13
    b17f:	5d                   	pop    %rbp
    b180:	e9 4b 15 0a 00       	jmp    ac6d0 <version_lock_unlock_exclusive>
    b185:	66 66 2e 0f 1f 84 00 	data16 cs nopw 0x0(%rax,%rax,1)
    b18c:	00 00 00 00 

000000000000b190 <btree_destroy>:
    b190:	55                   	push   %rbp
    b191:	31 f6                	xor    %esi,%esi
    b193:	48 89 e5             	mov    %rsp,%rbp
    b196:	41 54                	push   %r12
    b198:	49 89 fc             	mov    %rdi,%r12
    b19b:	53                   	push   %rbx
    b19c:	48 87 37             	xchg   %rsi,(%rdi)
    b19f:	48 85 f6             	test   %rsi,%rsi
    b1a2:	75 28                	jne    b1cc <btree_destroy+0x3c>
    b1a4:	49 8b 5c 24 08       	mov    0x8(%r12),%rbx
    b1a9:	48 85 db             	test   %rbx,%rbx
    b1ac:	74 19                	je     b1c7 <btree_destroy+0x37>
    b1ae:	66 90                	xchg   %ax,%ax
    b1b0:	48 89 df             	mov    %rbx,%rdi
    b1b3:	48 8b 5b 18          	mov    0x18(%rbx),%rbx
    b1b7:	67 e8 a3 49 02 00    	addr32 call 2fb60 <__free>
    b1bd:	49 89 5c 24 08       	mov    %rbx,0x8(%r12)
    b1c2:	48 85 db             	test   %rbx,%rbx
    b1c5:	75 e9                	jne    b1b0 <btree_destroy+0x20>
    b1c7:	5b                   	pop    %rbx
    b1c8:	41 5c                	pop    %r12
    b1ca:	5d                   	pop    %rbp
    b1cb:	c3                   	ret    
    b1cc:	e8 3f ff ff ff       	call   b110 <btree_release_tree_recursively>
    b1d1:	eb d1                	jmp    b1a4 <btree_destroy+0x14>
    b1d3:	66 90                	xchg   %ax,%ax
    b1d5:	66 66 2e 0f 1f 84 00 	data16 cs nopw 0x0(%rax,%rax,1)
    b1dc:	00 00 00 00 

000000000000b1e0 <release_registered_frames>:
    b1e0:	f3 0f 1e fa          	endbr64 
    b1e4:	55                   	push   %rbp
    b1e5:	48 8d 3d 64 4d 0f 00 	lea    0xf4d64(%rip),%rdi        # fff50 <registered_frames>
    b1ec:	48 89 e5             	mov    %rsp,%rbp
    b1ef:	e8 9c ff ff ff       	call   b190 <btree_destroy>
    b1f4:	48 8d 3d 35 4d 0f 00 	lea    0xf4d35(%rip),%rdi        # fff30 <registered_objects>
    b1fb:	e8 90 ff ff ff       	call   b190 <btree_destroy>
    b200:	c6 05 21 4d 0f 00 01 	movb   $0x1,0xf4d21(%rip)        # fff28 <in_shutdown>
    b207:	5d                   	pop    %rbp
    b208:	c3                   	ret    
    b209:	66 2e 0f 1f 84 00 00 	cs nopw 0x0(%rax,%rax,1)
    b210:	00 00 00 
    b213:	66 2e 0f 1f 84 00 00 	cs nopw 0x0(%rax,%rax,1)
    b21a:	00 00 00 
    b21d:	0f 1f 00             	nopl   (%rax)

000000000000b220 <_IO_stdfiles_init>:
    b220:	f3 0f 1e fa          	endbr64 
    b224:	48 8b 05 b5 91 0e 00 	mov    0xe91b5(%rip),%rax        # f43e0 <_IO_list_all>
    b22b:	48 85 c0             	test   %rax,%rax
    b22e:	74 24                	je     b254 <_IO_stdfiles_init+0x34>
    b230:	48 8d 15 a9 91 0e 00 	lea    0xe91a9(%rip),%rdx        # f43e0 <_IO_list_all>
    b237:	66 0f 1f 84 00 00 00 	nopw   0x0(%rax,%rax,1)
    b23e:	00 00 
    b240:	48 89 90 b8 00 00 00 	mov    %rdx,0xb8(%rax)
    b247:	48 8d 50 68          	lea    0x68(%rax),%rdx
    b24b:	48 8b 40 68          	mov    0x68(%rax),%rax
    b24f:	48 85 c0             	test   %rax,%rax
    b252:	75 ec                	jne    b240 <_IO_stdfiles_init+0x20>
    b254:	c3                   	ret    
    b255:	66 2e 0f 1f 84 00 00 	cs nopw 0x0(%rax,%rax,1)
    b25c:	00 00 00 
    b25f:	90                   	nop

000000000000b260 <_start>:
    b260:	f3 0f 1e fa          	endbr64 
    b264:	31 ed                	xor    %ebp,%ebp
    b266:	49 89 d1             	mov    %rdx,%r9
    b269:	5e                   	pop    %rsi
    b26a:	48 89 e2             	mov    %rsp,%rdx
    b26d:	48 83 e4 f0          	and    $0xfffffffffffffff0,%rsp
    b271:	50                   	push   %rax
    b272:	54                   	push   %rsp
    b273:	45 31 c0             	xor    %r8d,%r8d
    b276:	31 c9                	xor    %ecx,%ecx
    b278:	48 8d 3d 6d 13 00 00 	lea    0x136d(%rip),%rdi        # c5ec <main>
    b27f:	67 e8 7b 3a 00 00    	addr32 call ed00 <__libc_start_main>
    b285:	f4                   	hlt    
    b286:	66 2e 0f 1f 84 00 00 	cs nopw 0x0(%rax,%rax,1)
    b28d:	00 00 00 
    b290:	48 8d 3d e9 aa 0e 00 	lea    0xeaae9(%rip),%rdi        # f5d80 <__TMC_END__>
    b297:	48 8d 05 e2 aa 0e 00 	lea    0xeaae2(%rip),%rax        # f5d80 <__TMC_END__>
    b29e:	48 39 f8             	cmp    %rdi,%rax
    b2a1:	74 15                	je     b2b8 <_start+0x58>
    b2a3:	48 c7 c0 00 00 00 00 	mov    $0x0,%rax
    b2aa:	48 85 c0             	test   %rax,%rax
    b2ad:	74 09                	je     b2b8 <_start+0x58>
    b2af:	ff e0                	jmp    *%rax
    b2b1:	0f 1f 80 00 00 00 00 	nopl   0x0(%rax)
    b2b8:	c3                   	ret    
    b2b9:	0f 1f 80 00 00 00 00 	nopl   0x0(%rax)
    b2c0:	48 8d 3d b9 aa 0e 00 	lea    0xeaab9(%rip),%rdi        # f5d80 <__TMC_END__>
    b2c7:	48 8d 35 b2 aa 0e 00 	lea    0xeaab2(%rip),%rsi        # f5d80 <__TMC_END__>
    b2ce:	48 29 fe             	sub    %rdi,%rsi
    b2d1:	48 89 f0             	mov    %rsi,%rax
    b2d4:	48 c1 ee 3f          	shr    $0x3f,%rsi
    b2d8:	48 c1 f8 03          	sar    $0x3,%rax
    b2dc:	48 01 c6             	add    %rax,%rsi
    b2df:	48 d1 fe             	sar    %rsi
    b2e2:	74 14                	je     b2f8 <_start+0x98>
    b2e4:	48 c7 c0 00 00 00 00 	mov    $0x0,%rax
    b2eb:	48 85 c0             	test   %rax,%rax
    b2ee:	74 08                	je     b2f8 <_start+0x98>
    b2f0:	ff e0                	jmp    *%rax
    b2f2:	66 0f 1f 44 00 00    	nopw   0x0(%rax,%rax,1)
    b2f8:	c3                   	ret    
    b2f9:	0f 1f 80 00 00 00 00 	nopl   0x0(%rax)
    b300:	f3 0f 1e fa          	endbr64 
    b304:	80 3d 75 aa 0e 00 00 	cmpb   $0x0,0xeaa75(%rip)        # f5d80 <__TMC_END__>
    b30b:	75 33                	jne    b340 <_start+0xe0>
    b30d:	55                   	push   %rbp
    b30e:	48 83 3d c2 8b 0e 00 	cmpq   $0x0,0xe8bc2(%rip)        # f3ed8 <_DYNAMIC+0x1d0>
    b315:	00 
    b316:	48 89 e5             	mov    %rsp,%rbp
    b319:	74 0d                	je     b328 <_start+0xc8>
    b31b:	48 8b 3d 86 8d 0e 00 	mov    0xe8d86(%rip),%rdi        # f40a8 <__dso_handle>
    b322:	ff 15 b0 8b 0e 00    	call   *0xe8bb0(%rip)        # f3ed8 <_DYNAMIC+0x1d0>
    b328:	e8 63 ff ff ff       	call   b290 <_start+0x30>
    b32d:	c6 05 4c aa 0e 00 01 	movb   $0x1,0xeaa4c(%rip)        # f5d80 <__TMC_END__>
    b334:	5d                   	pop    %rbp
    b335:	c3                   	ret    
    b336:	66 2e 0f 1f 84 00 00 	cs nopw 0x0(%rax,%rax,1)
    b33d:	00 00 00 
    b340:	c3                   	ret    
    b341:	0f 1f 40 00          	nopl   0x0(%rax)
    b345:	66 66 2e 0f 1f 84 00 	data16 cs nopw 0x0(%rax,%rax,1)
    b34c:	00 00 00 00 
    b350:	f3 0f 1e fa          	endbr64 
    b354:	e9 67 ff ff ff       	jmp    b2c0 <_start+0x60>
    b359:	66 2e 0f 1f 84 00 00 	cs nopw 0x0(%rax,%rax,1)
    b360:	00 00 00 
    b363:	66 2e 0f 1f 84 00 00 	cs nopw 0x0(%rax,%rax,1)
    b36a:	00 00 00 
    b36d:	66 2e 0f 1f 84 00 00 	cs nopw 0x0(%rax,%rax,1)
    b374:	00 00 00 
    b377:	66 0f 1f 84 00 00 00 	nopw   0x0(%rax,%rax,1)
    b37e:	00 00 

000000000000b380 <handle_signals>:
    b380:	48 83 ec 08          	sub    $0x8,%rsp
    b384:	89 fa                	mov    %edi,%edx
    b386:	48 63 cf             	movslq %edi,%rcx
    b389:	48 8d 05 30 8e 0e 00 	lea    0xe8e30(%rip),%rax        # f41c0 <signal_names>
    b390:	48 8b 0c c8          	mov    (%rax,%rcx,8),%rcx
    b394:	48 8d 35 91 6c 0a 00 	lea    0xa6c91(%rip),%rsi        # b202c <__rseq_flags+0x28>
    b39b:	48 8b 3d e6 95 0e 00 	mov    0xe95e6(%rip),%rdi        # f4988 <stderr>
    b3a2:	b8 00 00 00 00       	mov    $0x0,%eax
    b3a7:	e8 24 59 00 00       	call   10cd0 <__fprintf>
    b3ac:	bf 01 00 00 00       	mov    $0x1,%edi
    b3b1:	e8 6a 48 00 00       	call   fc20 <exit>

000000000000b3b6 <pb_rand>:
    b3b6:	48 69 05 9f 8d 0e 00 	imul   $0x41c64e6d,0xe8d9f(%rip),%rax        # f4160 <state>
    b3bd:	6d 4e c6 41 
    b3c1:	48 05 39 30 00 00    	add    $0x3039,%rax
    b3c7:	48 89 05 92 8d 0e 00 	mov    %rax,0xe8d92(%rip)        # f4160 <state>
    b3ce:	48 c1 e8 10          	shr    $0x10,%rax
    b3d2:	25 ff 7f 00 00       	and    $0x7fff,%eax
    b3d7:	c3                   	ret    

000000000000b3d8 <pb_srand>:
    b3d8:	48 89 3d 81 8d 0e 00 	mov    %rdi,0xe8d81(%rip)        # f4160 <state>
    b3df:	c3                   	ret    

000000000000b3e0 <check_userid>:
    b3e0:	41 56                	push   %r14
    b3e2:	41 54                	push   %r12
    b3e4:	55                   	push   %rbp
    b3e5:	53                   	push   %rbx
    b3e6:	48 83 ec 28          	sub    $0x28,%rsp
    b3ea:	49 89 fe             	mov    %rdi,%r14
    b3ed:	64 48 8b 04 25 28 00 	mov    %fs:0x28,%rax
    b3f4:	00 00 
    b3f6:	48 89 44 24 18       	mov    %rax,0x18(%rsp)
    b3fb:	31 c0                	xor    %eax,%eax
    b3fd:	48 8d 3d 46 6c 0a 00 	lea    0xa6c46(%rip),%rdi        # b204a <__rseq_flags+0x46>
    b404:	e8 37 48 00 00       	call   fc40 <getenv>
    b409:	48 85 c0             	test   %rax,%rax
    b40c:	0f 84 b1 00 00 00    	je     b4c3 <check_userid+0xe3>
    b412:	49 89 c4             	mov    %rax,%r12
    b415:	80 38 00             	cmpb   $0x0,(%rax)
    b418:	0f 84 ac 00 00 00    	je     b4ca <check_userid+0xea>
    b41e:	48 b8 5f 5f 5f 5f 5f 	movabs $0x5f5f5f5f5f5f5f5f,%rax
    b425:	5f 5f 5f 
    b428:	48 89 44 24 0e       	mov    %rax,0xe(%rsp)
    b42d:	66 c7 44 24 16 00 00 	movw   $0x0,0x16(%rsp)
    b434:	bd 00 00 00 00       	mov    $0x0,%ebp
    b439:	eb 1c                	jmp    b457 <check_userid+0x77>
    b43b:	e8 f0 3d 00 00       	call   f230 <__ctype_toupper_loc>
    b440:	48 0f be db          	movsbq %bl,%rbx
    b444:	48 c1 e3 02          	shl    $0x2,%rbx
    b448:	48 03 18             	add    (%rax),%rbx
    b44b:	8b 13                	mov    (%rbx),%edx
    b44d:	48 63 c5             	movslq %ebp,%rax
    b450:	88 54 04 0e          	mov    %dl,0xe(%rsp,%rax,1)
    b454:	83 c5 01             	add    $0x1,%ebp
    b457:	48 63 c5             	movslq %ebp,%rax
    b45a:	41 0f b6 1c 04       	movzbl (%r12,%rax,1),%ebx
    b45f:	84 db                	test   %bl,%bl
    b461:	75 d8                	jne    b43b <check_userid+0x5b>
    b463:	48 8d 74 24 0e       	lea    0xe(%rsp),%rsi
    b468:	4c 89 f7             	mov    %r14,%rdi
    b46b:	e8 80 dc ff ff       	call   90f0 <_init+0xf0>
    b470:	85 c0                	test   %eax,%eax
    b472:	74 5b                	je     b4cf <check_userid+0xef>
    b474:	48 8d 1d ed 91 0a 00 	lea    0xa91ed(%rip),%rbx        # b4668 <slashdot.0+0x5cb>
    b47b:	48 89 df             	mov    %rbx,%rdi
    b47e:	e8 5d 63 01 00       	call   217e0 <_IO_puts>
    b483:	48 8d 54 24 0e       	lea    0xe(%rsp),%rdx
    b488:	4c 89 f6             	mov    %r14,%rsi
    b48b:	48 8d 3d 1e 92 0a 00 	lea    0xa921e(%rip),%rdi        # b46b0 <slashdot.0+0x613>
    b492:	b8 00 00 00 00       	mov    $0x0,%eax
    b497:	e8 94 5b 00 00       	call   11030 <_IO_printf>
    b49c:	48 8d 3d 4d 92 0a 00 	lea    0xa924d(%rip),%rdi        # b46f0 <slashdot.0+0x653>
    b4a3:	e8 38 63 01 00       	call   217e0 <_IO_puts>
    b4a8:	48 8d 3d 81 92 0a 00 	lea    0xa9281(%rip),%rdi        # b4730 <slashdot.0+0x693>
    b4af:	e8 2c 63 01 00       	call   217e0 <_IO_puts>
    b4b4:	48 89 df             	mov    %rbx,%rdi
    b4b7:	e8 24 63 01 00       	call   217e0 <_IO_puts>
    b4bc:	b8 01 00 00 00       	mov    $0x1,%eax
    b4c1:	eb 0c                	jmp    b4cf <check_userid+0xef>
    b4c3:	b8 00 00 00 00       	mov    $0x0,%eax
    b4c8:	eb 05                	jmp    b4cf <check_userid+0xef>
    b4ca:	b8 00 00 00 00       	mov    $0x0,%eax
    b4cf:	48 8b 54 24 18       	mov    0x18(%rsp),%rdx
    b4d4:	64 48 2b 14 25 28 00 	sub    %fs:0x28,%rdx
    b4db:	00 00 
    b4dd:	75 0b                	jne    b4ea <check_userid+0x10a>
    b4df:	48 83 c4 28          	add    $0x28,%rsp
    b4e3:	5b                   	pop    %rbx
    b4e4:	5d                   	pop    %rbp
    b4e5:	41 5c                	pop    %r12
    b4e7:	41 5e                	pop    %r14
    b4e9:	c3                   	ret    
    b4ea:	e8 81 ab 03 00       	call   46070 <__stack_chk_fail>

000000000000b4ef <setup01>:
    b4ef:	53                   	push   %rbx
    b4f0:	ba 00 00 00 00       	mov    $0x0,%edx
    b4f5:	bb 00 00 00 00       	mov    $0x0,%ebx
    b4fa:	eb 0a                	jmp    b506 <setup01+0x17>
    b4fc:	0f 1f 40 00          	nopl   0x0(%rax)
    b500:	83 c3 01             	add    $0x1,%ebx
    b503:	83 c2 01             	add    $0x1,%edx
    b506:	48 63 c2             	movslq %edx,%rax
    b509:	48 8d 0d 50 8d 0e 00 	lea    0xe8d50(%rip),%rcx        # f4260 <quotes>
    b510:	48 83 3c c1 00       	cmpq   $0x0,(%rcx,%rax,8)
    b515:	75 e9                	jne    b500 <setup01+0x11>
    b517:	e8 9a fe ff ff       	call   b3b6 <pb_rand>
    b51c:	ba 00 00 00 00       	mov    $0x0,%edx
    b521:	f7 f3                	div    %ebx
    b523:	48 8d 05 36 8d 0e 00 	lea    0xe8d36(%rip),%rax        # f4260 <quotes>
    b52a:	48 8b 04 d0          	mov    (%rax,%rdx,8),%rax
    b52e:	48 89 05 f3 e8 0e 00 	mov    %rax,0xee8f3(%rip)        # f9e28 <quote>
    b535:	5b                   	pop    %rbx
    b536:	c3                   	ret    

000000000000b537 <setup02>:
    b537:	55                   	push   %rbp
    b538:	53                   	push   %rbx
    b539:	48 81 ec 18 03 00 00 	sub    $0x318,%rsp
    b540:	64 48 8b 04 25 28 00 	mov    %fs:0x28,%rax
    b547:	00 00 
    b549:	48 89 84 24 08 03 00 	mov    %rax,0x308(%rsp)
    b550:	00 
    b551:	31 c0                	xor    %eax,%eax
    b553:	48 89 e7             	mov    %rsp,%rdi
    b556:	48 8d 35 e3 f1 0a 00 	lea    0xaf1e3(%rip),%rsi        # ba740 <__PRETTY_FUNCTION__.0+0xf8>
    b55d:	b9 5f 00 00 00       	mov    $0x5f,%ecx
    b562:	f3 48 a5             	rep movsq %ds:(%rsi),%es:(%rdi)
    b565:	8b 06                	mov    (%rsi),%eax
    b567:	89 07                	mov    %eax,(%rdi)
    b569:	b8 00 00 00 00       	mov    $0x0,%eax
    b56e:	bb 00 00 00 00       	mov    $0x0,%ebx
    b573:	eb 11                	jmp    b586 <setup02+0x4f>
    b575:	66 66 2e 0f 1f 84 00 	data16 cs nopw 0x0(%rax,%rax,1)
    b57c:	00 00 00 00 
    b580:	83 c3 01             	add    $0x1,%ebx
    b583:	83 c0 01             	add    $0x1,%eax
    b586:	48 63 d0             	movslq %eax,%rdx
    b589:	83 3c 94 ff          	cmpl   $0xffffffff,(%rsp,%rdx,4)
    b58d:	75 f1                	jne    b580 <setup02+0x49>
    b58f:	e8 22 fe ff ff       	call   b3b6 <pb_rand>
    b594:	ba 00 00 00 00       	mov    $0x0,%edx
    b599:	f7 f3                	div    %ebx
    b59b:	8b 2c 94             	mov    (%rsp,%rdx,4),%ebp
    b59e:	e8 13 fe ff ff       	call   b3b6 <pb_rand>
    b5a3:	ba 00 00 00 00       	mov    $0x0,%edx
    b5a8:	f7 f3                	div    %ebx
    b5aa:	0f af 2c 94          	imul   (%rsp,%rdx,4),%ebp
    b5ae:	89 2d 6c e8 0e 00    	mov    %ebp,0xee86c(%rip)        # f9e20 <RAND_UMVAL>
    b5b4:	48 8b 84 24 08 03 00 	mov    0x308(%rsp),%rax
    b5bb:	00 
    b5bc:	64 48 2b 04 25 28 00 	sub    %fs:0x28,%rax
    b5c3:	00 00 
    b5c5:	75 0a                	jne    b5d1 <setup02+0x9a>
    b5c7:	48 81 c4 18 03 00 00 	add    $0x318,%rsp
    b5ce:	5b                   	pop    %rbx
    b5cf:	5d                   	pop    %rbp
    b5d0:	c3                   	ret    
    b5d1:	e8 9a aa 03 00       	call   46070 <__stack_chk_fail>

000000000000b5d6 <setup03>:
    b5d6:	c3                   	ret    

000000000000b5d7 <setup04>:
    b5d7:	c3                   	ret    

000000000000b5d8 <setup05>:
    b5d8:	c3                   	ret    

000000000000b5d9 <scramble>:
    b5d9:	41 57                	push   %r15
    b5db:	41 56                	push   %r14
    b5dd:	41 55                	push   %r13
    b5df:	41 54                	push   %r12
    b5e1:	55                   	push   %rbp
    b5e2:	53                   	push   %rbx
    b5e3:	48 83 ec 08          	sub    $0x8,%rsp
    b5e7:	49 89 fc             	mov    %rdi,%r12
    b5ea:	41 89 f5             	mov    %esi,%r13d
    b5ed:	e8 5e db ff ff       	call   9150 <_init+0x150>
    b5f2:	49 89 c6             	mov    %rax,%r14
    b5f5:	bd 00 00 00 00       	mov    $0x0,%ebp
    b5fa:	eb 34                	jmp    b630 <scramble+0x57>
    b5fc:	e8 b5 fd ff ff       	call   b3b6 <pb_rand>
    b601:	ba 00 00 00 00       	mov    $0x0,%edx
    b606:	41 f7 f6             	div    %r14d
    b609:	41 89 d7             	mov    %edx,%r15d
    b60c:	e8 a5 fd ff ff       	call   b3b6 <pb_rand>
    b611:	44 89 f9             	mov    %r15d,%ecx
    b614:	4c 01 e1             	add    %r12,%rcx
    b617:	0f b6 31             	movzbl (%rcx),%esi
    b61a:	ba 00 00 00 00       	mov    $0x0,%edx
    b61f:	41 f7 f6             	div    %r14d
    b622:	4c 01 e2             	add    %r12,%rdx
    b625:	0f b6 02             	movzbl (%rdx),%eax
    b628:	88 01                	mov    %al,(%rcx)
    b62a:	40 88 32             	mov    %sil,(%rdx)
    b62d:	83 c5 01             	add    $0x1,%ebp
    b630:	44 39 ed             	cmp    %r13d,%ebp
    b633:	7c c7                	jl     b5fc <scramble+0x23>
    b635:	48 83 c4 08          	add    $0x8,%rsp
    b639:	5b                   	pop    %rbx
    b63a:	5d                   	pop    %rbp
    b63b:	41 5c                	pop    %r12
    b63d:	41 5d                	pop    %r13
    b63f:	41 5e                	pop    %r14
    b641:	41 5f                	pop    %r15
    b643:	c3                   	ret    

000000000000b644 <setup06>:
    b644:	48 83 ec 08          	sub    $0x8,%rsp
    b648:	be 64 00 00 00       	mov    $0x64,%esi
    b64d:	48 8d 3d 8c 8a 0e 00 	lea    0xe8a8c(%rip),%rdi        # f40e0 <letters>
    b654:	e8 80 ff ff ff       	call   b5d9 <scramble>
    b659:	48 83 c4 08          	add    $0x8,%rsp
    b65d:	c3                   	ret    

000000000000b65e <setup07>:
    b65e:	53                   	push   %rbx
    b65f:	bb 00 00 00 00       	mov    $0x0,%ebx
    b664:	eb 39                	jmp    b69f <setup07+0x41>
    b666:	e8 4b fd ff ff       	call   b3b6 <pb_rand>
    b66b:	89 c2                	mov    %eax,%edx
    b66d:	48 69 d2 1f 85 eb 51 	imul   $0x51eb851f,%rdx,%rdx
    b674:	48 c1 ea 23          	shr    $0x23,%rdx
    b678:	8d 14 92             	lea    (%rdx,%rdx,4),%edx
    b67b:	8d 0c 92             	lea    (%rdx,%rdx,4),%ecx
    b67e:	29 c8                	sub    %ecx,%eax
    b680:	89 c2                	mov    %eax,%edx
    b682:	48 63 cb             	movslq %ebx,%rcx
    b685:	48 c1 e1 04          	shl    $0x4,%rcx
    b689:	48 8d 05 30 e7 0e 00 	lea    0xee730(%rip),%rax        # f9dc0 <intlist_nodes>
    b690:	48 01 c8             	add    %rcx,%rax
    b693:	89 10                	mov    %edx,(%rax)
    b695:	c7 40 04 00 00 00 00 	movl   $0x0,0x4(%rax)
    b69c:	83 c3 01             	add    $0x1,%ebx
    b69f:	83 fb 05             	cmp    $0x5,%ebx
    b6a2:	7e c2                	jle    b666 <setup07+0x8>
    b6a4:	5b                   	pop    %rbx
    b6a5:	c3                   	ret    

000000000000b6a6 <setup_secret>:
    b6a6:	c3                   	ret    

000000000000b6a7 <setup_signal_handlers>:
    b6a7:	53                   	push   %rbx
    b6a8:	bb 01 00 00 00       	mov    $0x1,%ebx
    b6ad:	eb 14                	jmp    b6c3 <setup_signal_handlers+0x1c>
    b6af:	66 0f 1f 44 00 00    	nopw   0x0(%rax,%rax,1)
    b6b5:	66 66 2e 0f 1f 84 00 	data16 cs nopw 0x0(%rax,%rax,1)
    b6bc:	00 00 00 00 
    b6c0:	83 c3 01             	add    $0x1,%ebx
    b6c3:	83 fb 13             	cmp    $0x13,%ebx
    b6c6:	7f 25                	jg     b6ed <setup_signal_handlers+0x46>
    b6c8:	83 fb 09             	cmp    $0x9,%ebx
    b6cb:	0f 95 c2             	setne  %dl
    b6ce:	83 fb 13             	cmp    $0x13,%ebx
    b6d1:	0f 95 c0             	setne  %al
    b6d4:	84 c2                	test   %al,%dl
    b6d6:	74 e8                	je     b6c0 <setup_signal_handlers+0x19>
    b6d8:	83 fb 11             	cmp    $0x11,%ebx
    b6db:	74 e3                	je     b6c0 <setup_signal_handlers+0x19>
    b6dd:	48 8d 35 9c fc ff ff 	lea    -0x364(%rip),%rsi        # b380 <handle_signals>
    b6e4:	89 df                	mov    %ebx,%edi
    b6e6:	e8 e5 3b 00 00       	call   f2d0 <__bsd_signal>
    b6eb:	eb d3                	jmp    b6c0 <setup_signal_handlers+0x19>
    b6ed:	5b                   	pop    %rbx
    b6ee:	c3                   	ret    

000000000000b6ef <setup_input>:
    b6ef:	48 83 ec 08          	sub    $0x8,%rsp
    b6f3:	48 8d 35 dc 8a 0a 00 	lea    0xa8adc(%rip),%rsi        # b41d6 <slashdot.0+0x139>
    b6fa:	e8 b1 5a 01 00       	call   211b0 <_IO_new_fopen>
    b6ff:	48 89 05 9a a6 0e 00 	mov    %rax,0xea69a(%rip)        # f5da0 <input_fh>
    b706:	48 85 c0             	test   %rax,%rax
    b709:	74 05                	je     b710 <setup_input+0x21>
    b70b:	48 83 c4 08          	add    $0x8,%rsp
    b70f:	c3                   	ret    
    b710:	48 8d 3d 41 69 0a 00 	lea    0xa6941(%rip),%rdi        # b2058 <__rseq_flags+0x54>
    b717:	e8 c6 db ff ff       	call   92e2 <perror>
    b71c:	bf 01 00 00 00       	mov    $0x1,%edi
    b721:	e8 fa 44 00 00       	call   fc20 <exit>

000000000000b726 <close_input>:
    b726:	48 83 ec 08          	sub    $0x8,%rsp
    b72a:	48 8b 3d 6f a6 0e 00 	mov    0xea66f(%rip),%rdi        # f5da0 <input_fh>
    b731:	48 85 ff             	test   %rdi,%rdi
    b734:	74 0a                	je     b740 <close_input+0x1a>
    b736:	e8 15 52 01 00       	call   20950 <_IO_new_fclose>
    b73b:	48 83 c4 08          	add    $0x8,%rsp
    b73f:	c3                   	ret    
    b740:	48 8b 0d 41 92 0e 00 	mov    0xe9241(%rip),%rcx        # f4988 <stderr>
    b747:	ba 14 00 00 00       	mov    $0x14,%edx
    b74c:	be 01 00 00 00       	mov    $0x1,%esi
    b751:	48 8d 3d 19 69 0a 00 	lea    0xa6919(%rip),%rdi        # b2071 <__rseq_flags+0x6d>
    b758:	e8 13 5c 01 00       	call   21370 <_IO_fwrite>
    b75d:	bf 01 00 00 00       	mov    $0x1,%edi
    b762:	e8 b9 44 00 00       	call   fc20 <exit>

000000000000b767 <next_input>:
    b767:	48 83 ec 08          	sub    $0x8,%rsp
    b76b:	8b 05 4f 89 0e 00    	mov    0xe894f(%rip),%eax        # f40c0 <input_idx>
    b771:	8d 50 01             	lea    0x1(%rax),%edx
    b774:	89 15 46 89 0e 00    	mov    %edx,0xe8946(%rip)        # f40c0 <input_idx>
    b77a:	48 63 d2             	movslq %edx,%rdx
    b77d:	48 c1 e2 07          	shl    $0x7,%rdx
    b781:	48 8d 05 38 a6 0e 00 	lea    0xea638(%rip),%rax        # f5dc0 <inputs>
    b788:	48 01 c2             	add    %rax,%rdx
    b78b:	48 8d 35 dd 69 0a 00 	lea    0xa69dd(%rip),%rsi        # b216f <__rseq_flags+0x16b>
    b792:	48 8b 3d 07 a6 0e 00 	mov    0xea607(%rip),%rdi        # f5da0 <input_fh>
    b799:	b8 00 00 00 00       	mov    $0x0,%eax
    b79e:	e8 ed 55 00 00       	call   10d90 <__isoc23_fscanf>
    b7a3:	83 f8 01             	cmp    $0x1,%eax
    b7a6:	75 1a                	jne    b7c2 <next_input+0x5b>
    b7a8:	48 63 05 11 89 0e 00 	movslq 0xe8911(%rip),%rax        # f40c0 <input_idx>
    b7af:	48 c1 e0 07          	shl    $0x7,%rax
    b7b3:	48 8d 15 06 a6 0e 00 	lea    0xea606(%rip),%rdx        # f5dc0 <inputs>
    b7ba:	48 01 d0             	add    %rdx,%rax
    b7bd:	48 83 c4 08          	add    $0x8,%rsp
    b7c1:	c3                   	ret    
    b7c2:	8b 15 f8 88 0e 00    	mov    0xe88f8(%rip),%edx        # f40c0 <input_idx>
    b7c8:	48 8d 35 99 8f 0a 00 	lea    0xa8f99(%rip),%rsi        # b4768 <slashdot.0+0x6cb>
    b7cf:	48 8b 3d b2 91 0e 00 	mov    0xe91b2(%rip),%rdi        # f4988 <stderr>
    b7d6:	b8 00 00 00 00       	mov    $0x0,%eax
    b7db:	e8 f0 54 00 00       	call   10cd0 <__fprintf>
    b7e0:	48 63 05 d9 88 0e 00 	movslq 0xe88d9(%rip),%rax        # f40c0 <input_idx>
    b7e7:	48 c1 e0 07          	shl    $0x7,%rax
    b7eb:	48 8d 15 ce a5 0e 00 	lea    0xea5ce(%rip),%rdx        # f5dc0 <inputs>
    b7f2:	c6 04 02 00          	movb   $0x0,(%rdx,%rax,1)
    b7f6:	eb b0                	jmp    b7a8 <next_input+0x41>

000000000000b7f8 <skip_check>:
    b7f8:	41 56                	push   %r14
    b7fa:	41 54                	push   %r12
    b7fc:	55                   	push   %rbp
    b7fd:	53                   	push   %rbx
    b7fe:	48 83 ec 08          	sub    $0x8,%rsp
    b802:	48 8b 3d 97 a5 0e 00 	mov    0xea597(%rip),%rdi        # f5da0 <input_fh>
    b809:	e8 b2 59 01 00       	call   211c0 <_IO_ftell>
    b80e:	49 89 c6             	mov    %rax,%r14
    b811:	48 8d 35 6e 68 0a 00 	lea    0xa686e(%rip),%rsi        # b2086 <__rseq_flags+0x82>
    b818:	48 8b 3d 81 a5 0e 00 	mov    0xea581(%rip),%rdi        # f5da0 <input_fh>
    b81f:	b8 00 00 00 00       	mov    $0x0,%eax
    b824:	e8 67 55 00 00       	call   10d90 <__isoc23_fscanf>
    b829:	8b 05 91 88 0e 00    	mov    0xe8891(%rip),%eax        # f40c0 <input_idx>
    b82f:	8d 78 01             	lea    0x1(%rax),%edi
    b832:	89 3d 88 88 0e 00    	mov    %edi,0xe8888(%rip)        # f40c0 <input_idx>
    b838:	48 63 ff             	movslq %edi,%rdi
    b83b:	48 c1 e7 07          	shl    $0x7,%rdi
    b83f:	48 8d 05 7a a5 0e 00 	lea    0xea57a(%rip),%rax        # f5dc0 <inputs>
    b846:	48 01 c7             	add    %rax,%rdi
    b849:	48 8b 15 50 a5 0e 00 	mov    0xea550(%rip),%rdx        # f5da0 <input_fh>
    b850:	be 80 00 00 00       	mov    $0x80,%esi
    b855:	e8 26 56 01 00       	call   20e80 <_IO_fgets>
    b85a:	48 85 c0             	test   %rax,%rax
    b85d:	74 42                	je     b8a1 <skip_check+0xa9>
    b85f:	48 89 c5             	mov    %rax,%rbp
    b862:	44 8b 25 57 88 0e 00 	mov    0xe8857(%rip),%r12d        # f40c0 <input_idx>
    b869:	49 63 dc             	movslq %r12d,%rbx
    b86c:	48 c1 e3 07          	shl    $0x7,%rbx
    b870:	48 8d 05 49 a5 0e 00 	lea    0xea549(%rip),%rax        # f5dc0 <inputs>
    b877:	48 01 c3             	add    %rax,%rbx
    b87a:	48 89 df             	mov    %rbx,%rdi
    b87d:	e8 ce d8 ff ff       	call   9150 <_init+0x150>
    b882:	83 e8 01             	sub    $0x1,%eax
    b885:	48 63 d0             	movslq %eax,%rdx
    b888:	80 3c 13 0a          	cmpb   $0xa,(%rbx,%rdx,1)
    b88c:	74 3e                	je     b8cc <skip_check+0xd4>
    b88e:	48 8b 35 f3 8a 0e 00 	mov    0xe8af3(%rip),%rsi        # f4388 <SKIP>
    b895:	48 89 ef             	mov    %rbp,%rdi
    b898:	e8 53 d8 ff ff       	call   90f0 <_init+0xf0>
    b89d:	85 c0                	test   %eax,%eax
    b89f:	74 31                	je     b8d2 <skip_check+0xda>
    b8a1:	83 2d 18 88 0e 00 01 	subl   $0x1,0xe8818(%rip)        # f40c0 <input_idx>
    b8a8:	ba 00 00 00 00       	mov    $0x0,%edx
    b8ad:	4c 89 f6             	mov    %r14,%rsi
    b8b0:	48 8b 3d e9 a4 0e 00 	mov    0xea4e9(%rip),%rdi        # f5da0 <input_fh>
    b8b7:	e8 64 7e 01 00       	call   23720 <fseek>
    b8bc:	b8 00 00 00 00       	mov    $0x0,%eax
    b8c1:	48 83 c4 08          	add    $0x8,%rsp
    b8c5:	5b                   	pop    %rbx
    b8c6:	5d                   	pop    %rbp
    b8c7:	41 5c                	pop    %r12
    b8c9:	41 5e                	pop    %r14
    b8cb:	c3                   	ret    
    b8cc:	c6 04 13 00          	movb   $0x0,(%rbx,%rdx,1)
    b8d0:	eb bc                	jmp    b88e <skip_check+0x96>
    b8d2:	48 8d 3d bf 8e 0a 00 	lea    0xa8ebf(%rip),%rdi        # b4798 <slashdot.0+0x6fb>
    b8d9:	e8 02 5f 01 00       	call   217e0 <_IO_puts>
    b8de:	8b 35 84 88 0e 00    	mov    0xe8884(%rip),%esi        # f4168 <skip_penalty>
    b8e4:	48 8d 3d 0d 8f 0a 00 	lea    0xa8f0d(%rip),%rdi        # b47f8 <slashdot.0+0x75b>
    b8eb:	b8 00 00 00 00       	mov    $0x0,%eax
    b8f0:	e8 3b 57 00 00       	call   11030 <_IO_printf>
    b8f5:	8b 2d c5 87 0e 00    	mov    0xe87c5(%rip),%ebp        # f40c0 <input_idx>
    b8fb:	48 63 dd             	movslq %ebp,%rbx
    b8fe:	48 c1 e3 07          	shl    $0x7,%rbx
    b902:	48 8d 05 b7 a4 0e 00 	lea    0xea4b7(%rip),%rax        # f5dc0 <inputs>
    b909:	48 01 c3             	add    %rax,%rbx
    b90c:	48 89 df             	mov    %rbx,%rdi
    b90f:	e8 3c d8 ff ff       	call   9150 <_init+0x150>
    b914:	83 e8 01             	sub    $0x1,%eax
    b917:	48 63 d0             	movslq %eax,%rdx
    b91a:	80 3c 13 0a          	cmpb   $0xa,(%rbx,%rdx,1)
    b91e:	74 13                	je     b933 <skip_check+0x13b>
    b920:	8b 05 42 88 0e 00    	mov    0xe8842(%rip),%eax        # f4168 <skip_penalty>
    b926:	01 05 08 e5 0e 00    	add    %eax,0xee508(%rip)        # f9e34 <score>
    b92c:	b8 01 00 00 00       	mov    $0x1,%eax
    b931:	eb 8e                	jmp    b8c1 <skip_check+0xc9>
    b933:	c6 04 13 00          	movb   $0x0,(%rbx,%rdx,1)
    b937:	eb e7                	jmp    b920 <skip_check+0x128>

000000000000b939 <next_line>:
    b939:	55                   	push   %rbp
    b93a:	53                   	push   %rbx
    b93b:	48 83 ec 08          	sub    $0x8,%rsp
    b93f:	83 05 7a 87 0e 00 01 	addl   $0x1,0xe877a(%rip)        # f40c0 <input_idx>
    b946:	48 8d 35 39 67 0a 00 	lea    0xa6739(%rip),%rsi        # b2086 <__rseq_flags+0x82>
    b94d:	48 8b 3d 4c a4 0e 00 	mov    0xea44c(%rip),%rdi        # f5da0 <input_fh>
    b954:	b8 00 00 00 00       	mov    $0x0,%eax
    b959:	e8 32 54 00 00       	call   10d90 <__isoc23_fscanf>
    b95e:	48 63 3d 5b 87 0e 00 	movslq 0xe875b(%rip),%rdi        # f40c0 <input_idx>
    b965:	48 c1 e7 07          	shl    $0x7,%rdi
    b969:	48 8d 05 50 a4 0e 00 	lea    0xea450(%rip),%rax        # f5dc0 <inputs>
    b970:	48 01 c7             	add    %rax,%rdi
    b973:	48 8b 15 26 a4 0e 00 	mov    0xea426(%rip),%rdx        # f5da0 <input_fh>
    b97a:	be 80 00 00 00       	mov    $0x80,%esi
    b97f:	e8 fc 54 01 00       	call   20e80 <_IO_fgets>
    b984:	48 85 c0             	test   %rax,%rax
    b987:	74 35                	je     b9be <next_line+0x85>
    b989:	8b 2d 31 87 0e 00    	mov    0xe8731(%rip),%ebp        # f40c0 <input_idx>
    b98f:	48 63 dd             	movslq %ebp,%rbx
    b992:	48 c1 e3 07          	shl    $0x7,%rbx
    b996:	48 8d 05 23 a4 0e 00 	lea    0xea423(%rip),%rax        # f5dc0 <inputs>
    b99d:	48 01 c3             	add    %rax,%rbx
    b9a0:	48 89 df             	mov    %rbx,%rdi
    b9a3:	e8 a8 d7 ff ff       	call   9150 <_init+0x150>
    b9a8:	83 e8 01             	sub    $0x1,%eax
    b9ab:	48 63 d0             	movslq %eax,%rdx
    b9ae:	80 3c 13 0a          	cmpb   $0xa,(%rbx,%rdx,1)
    b9b2:	74 3b                	je     b9ef <next_line+0xb6>
    b9b4:	48 89 d8             	mov    %rbx,%rax
    b9b7:	48 83 c4 08          	add    $0x8,%rsp
    b9bb:	5b                   	pop    %rbx
    b9bc:	5d                   	pop    %rbp
    b9bd:	c3                   	ret    
    b9be:	8b 15 fc 86 0e 00    	mov    0xe86fc(%rip),%edx        # f40c0 <input_idx>
    b9c4:	48 8d 35 9d 8d 0a 00 	lea    0xa8d9d(%rip),%rsi        # b4768 <slashdot.0+0x6cb>
    b9cb:	48 8b 3d b6 8f 0e 00 	mov    0xe8fb6(%rip),%rdi        # f4988 <stderr>
    b9d2:	e8 f9 52 00 00       	call   10cd0 <__fprintf>
    b9d7:	48 63 05 e2 86 0e 00 	movslq 0xe86e2(%rip),%rax        # f40c0 <input_idx>
    b9de:	48 c1 e0 07          	shl    $0x7,%rax
    b9e2:	48 8d 15 d7 a3 0e 00 	lea    0xea3d7(%rip),%rdx        # f5dc0 <inputs>
    b9e9:	c6 04 02 00          	movb   $0x0,(%rdx,%rax,1)
    b9ed:	eb 9a                	jmp    b989 <next_line+0x50>
    b9ef:	c6 04 13 00          	movb   $0x0,(%rbx,%rdx,1)
    b9f3:	eb bf                	jmp    b9b4 <next_line+0x7b>

000000000000b9f5 <strcmp_pb>:
    b9f5:	48 83 ec 08          	sub    $0x8,%rsp
    b9f9:	e8 f2 d6 ff ff       	call   90f0 <_init+0xf0>
    b9fe:	48 83 c4 08          	add    $0x8,%rsp
    ba02:	c3                   	ret    

000000000000ba03 <sscanf_pb>:
    ba03:	48 81 ec d8 00 00 00 	sub    $0xd8,%rsp
    ba0a:	48 89 54 24 30       	mov    %rdx,0x30(%rsp)
    ba0f:	48 89 4c 24 38       	mov    %rcx,0x38(%rsp)
    ba14:	4c 89 44 24 40       	mov    %r8,0x40(%rsp)
    ba19:	4c 89 4c 24 48       	mov    %r9,0x48(%rsp)
    ba1e:	84 c0                	test   %al,%al
    ba20:	74 37                	je     ba59 <sscanf_pb+0x56>
    ba22:	0f 29 44 24 50       	movaps %xmm0,0x50(%rsp)
    ba27:	0f 29 4c 24 60       	movaps %xmm1,0x60(%rsp)
    ba2c:	0f 29 54 24 70       	movaps %xmm2,0x70(%rsp)
    ba31:	0f 29 9c 24 80 00 00 	movaps %xmm3,0x80(%rsp)
    ba38:	00 
    ba39:	0f 29 a4 24 90 00 00 	movaps %xmm4,0x90(%rsp)
    ba40:	00 
    ba41:	0f 29 ac 24 a0 00 00 	movaps %xmm5,0xa0(%rsp)
    ba48:	00 
    ba49:	0f 29 b4 24 b0 00 00 	movaps %xmm6,0xb0(%rsp)
    ba50:	00 
    ba51:	0f 29 bc 24 c0 00 00 	movaps %xmm7,0xc0(%rsp)
    ba58:	00 
    ba59:	64 48 8b 04 25 28 00 	mov    %fs:0x28,%rax
    ba60:	00 00 
    ba62:	48 89 44 24 18       	mov    %rax,0x18(%rsp)
    ba67:	31 c0                	xor    %eax,%eax
    ba69:	c7 04 24 10 00 00 00 	movl   $0x10,(%rsp)
    ba70:	c7 44 24 04 30 00 00 	movl   $0x30,0x4(%rsp)
    ba77:	00 
    ba78:	48 8d 84 24 e0 00 00 	lea    0xe0(%rsp),%rax
    ba7f:	00 
    ba80:	48 89 44 24 08       	mov    %rax,0x8(%rsp)
    ba85:	48 8d 44 24 20       	lea    0x20(%rsp),%rax
    ba8a:	48 89 44 24 10       	mov    %rax,0x10(%rsp)
    ba8f:	48 89 e2             	mov    %rsp,%rdx
    ba92:	e8 e9 54 00 00       	call   10f80 <__isoc23_vsscanf>
    ba97:	48 8b 54 24 18       	mov    0x18(%rsp),%rdx
    ba9c:	64 48 2b 14 25 28 00 	sub    %fs:0x28,%rdx
    baa3:	00 00 
    baa5:	75 08                	jne    baaf <sscanf_pb+0xac>
    baa7:	48 81 c4 d8 00 00 00 	add    $0xd8,%rsp
    baae:	c3                   	ret    
    baaf:	e8 bc a5 03 00       	call   46070 <__stack_chk_fail>

000000000000bab4 <secret_phase>:
    bab4:	48 83 ec 18          	sub    $0x18,%rsp
    bab8:	64 48 8b 04 25 28 00 	mov    %fs:0x28,%rax
    babf:	00 00 
    bac1:	48 89 44 24 08       	mov    %rax,0x8(%rsp)
    bac6:	31 c0                	xor    %eax,%eax
    bac8:	48 8d 3d 51 8d 0a 00 	lea    0xa8d51(%rip),%rdi        # b4820 <slashdot.0+0x783>
    bacf:	e8 0c 5d 01 00       	call   217e0 <_IO_puts>
    bad4:	e8 60 fe ff ff       	call   b939 <next_line>
    bad9:	48 89 c7             	mov    %rax,%rdi
    badc:	48 8d 54 24 04       	lea    0x4(%rsp),%rdx
    bae1:	48 8d 35 ef 66 0a 00 	lea    0xa66ef(%rip),%rsi        # b21d7 <__rseq_flags+0x1d3>
    bae8:	b8 00 00 00 00       	mov    $0x0,%eax
    baed:	e8 11 ff ff ff       	call   ba03 <sscanf_pb>
    baf2:	f3 0f 10 44 24 04    	movss  0x4(%rsp),%xmm0
    baf8:	0f 2e c0             	ucomiss %xmm0,%xmm0
    bafb:	7b 39                	jnp    bb36 <secret_phase+0x82>
    bafd:	48 8b 35 9c 86 0e 00 	mov    0xe869c(%rip),%rsi        # f41a0 <banner>
    bb04:	48 8d 3d 64 66 0a 00 	lea    0xa6664(%rip),%rdi        # b216f <__rseq_flags+0x16b>
    bb0b:	b8 00 00 00 00       	mov    $0x0,%eax
    bb10:	e8 1b 55 00 00       	call   11030 <_IO_printf>
    bb15:	8b 05 81 86 0e 00    	mov    0xe8681(%rip),%eax        # f419c <points+0x1c>
    bb1b:	01 05 13 e3 0e 00    	add    %eax,0xee313(%rip)        # f9e34 <score>
    bb21:	48 8b 44 24 08       	mov    0x8(%rsp),%rax
    bb26:	64 48 2b 04 25 28 00 	sub    %fs:0x28,%rax
    bb2d:	00 00 
    bb2f:	75 13                	jne    bb44 <secret_phase+0x90>
    bb31:	48 83 c4 18          	add    $0x18,%rsp
    bb35:	c3                   	ret    
    bb36:	48 8d 3d 23 8d 0a 00 	lea    0xa8d23(%rip),%rdi        # b4860 <slashdot.0+0x7c3>
    bb3d:	e8 9e 5c 01 00       	call   217e0 <_IO_puts>
    bb42:	eb dd                	jmp    bb21 <secret_phase+0x6d>
    bb44:	e8 27 a5 03 00       	call   46070 <__stack_chk_fail>

000000000000bb49 <dont_run_me>:
    bb49:	41 54                	push   %r12
    bb4b:	55                   	push   %rbp
    bb4c:	53                   	push   %rbx
    bb4d:	48 81 ec 90 00 00 00 	sub    $0x90,%rsp
    bb54:	64 48 8b 04 25 28 00 	mov    %fs:0x28,%rax
    bb5b:	00 00 
    bb5d:	48 89 84 24 88 00 00 	mov    %rax,0x88(%rsp)
    bb64:	00 
    bb65:	31 c0                	xor    %eax,%eax
    bb67:	e8 c4 6d 03 00       	call   42930 <__libc_fork>
    bb6c:	85 c0                	test   %eax,%eax
    bb6e:	74 0c                	je     bb7c <dont_run_me+0x33>
    bb70:	bf 01 00 00 00       	mov    $0x1,%edi
    bb75:	e8 c6 7b 03 00       	call   43740 <__sleep>
    bb7a:	eb f4                	jmp    bb70 <dont_run_me+0x27>
    bb7c:	41 89 c4             	mov    %eax,%r12d
    bb7f:	e8 8c 7b 03 00       	call   43710 <setsid>
    bb84:	48 8d 3d fd 8c 0a 00 	lea    0xa8cfd(%rip),%rdi        # b4888 <slashdot.0+0x7eb>
    bb8b:	e8 00 4d 00 00       	call   10890 <__libc_system>
    bb90:	48 8d 05 19 8d 0a 00 	lea    0xa8d19(%rip),%rax        # b48b0 <slashdot.0+0x813>
    bb97:	48 89 04 24          	mov    %rax,(%rsp)
    bb9b:	48 8d 05 86 94 0a 00 	lea    0xa9486(%rip),%rax        # b5028 <slashdot.0+0xf8b>
    bba2:	48 89 44 24 08       	mov    %rax,0x8(%rsp)
    bba7:	48 8d 05 db 64 0a 00 	lea    0xa64db(%rip),%rax        # b2089 <__rseq_flags+0x85>
    bbae:	48 89 44 24 10       	mov    %rax,0x10(%rsp)
    bbb3:	48 8d 05 de 64 0a 00 	lea    0xa64de(%rip),%rax        # b2098 <__rseq_flags+0x94>
    bbba:	48 89 44 24 18       	mov    %rax,0x18(%rsp)
    bbbf:	48 8d 05 e5 64 0a 00 	lea    0xa64e5(%rip),%rax        # b20ab <__rseq_flags+0xa7>
    bbc6:	48 89 44 24 20       	mov    %rax,0x20(%rsp)
    bbcb:	48 8d 05 de 64 0a 00 	lea    0xa64de(%rip),%rax        # b20b0 <__rseq_flags+0xac>
    bbd2:	48 89 44 24 28       	mov    %rax,0x28(%rsp)
    bbd7:	48 8d 05 e0 64 0a 00 	lea    0xa64e0(%rip),%rax        # b20be <__rseq_flags+0xba>
    bbde:	48 89 44 24 30       	mov    %rax,0x30(%rsp)
    bbe3:	48 8d 05 66 94 0a 00 	lea    0xa9466(%rip),%rax        # b5050 <slashdot.0+0xfb3>
    bbea:	48 89 44 24 38       	mov    %rax,0x38(%rsp)
    bbef:	48 8d 05 e0 64 0a 00 	lea    0xa64e0(%rip),%rax        # b20d6 <__rseq_flags+0xd2>
    bbf6:	48 89 44 24 40       	mov    %rax,0x40(%rsp)
    bbfb:	48 8d 05 ee 64 0a 00 	lea    0xa64ee(%rip),%rax        # b20f0 <__rseq_flags+0xec>
    bc02:	48 89 44 24 48       	mov    %rax,0x48(%rsp)
    bc07:	48 8d 05 fb 64 0a 00 	lea    0xa64fb(%rip),%rax        # b2109 <__rseq_flags+0x105>
    bc0e:	48 89 44 24 50       	mov    %rax,0x50(%rsp)
    bc13:	48 8d 05 f7 64 0a 00 	lea    0xa64f7(%rip),%rax        # b2111 <__rseq_flags+0x10d>
    bc1a:	48 89 44 24 58       	mov    %rax,0x58(%rsp)
    bc1f:	48 8d 05 52 94 0a 00 	lea    0xa9452(%rip),%rax        # b5078 <slashdot.0+0xfdb>
    bc26:	48 89 44 24 60       	mov    %rax,0x60(%rsp)
    bc2b:	48 8d 05 6e 94 0a 00 	lea    0xa946e(%rip),%rax        # b50a0 <slashdot.0+0x1003>
    bc32:	48 89 44 24 68       	mov    %rax,0x68(%rsp)
    bc37:	48 8d 05 9a 94 0a 00 	lea    0xa949a(%rip),%rax        # b50d8 <slashdot.0+0x103b>
    bc3e:	48 89 44 24 70       	mov    %rax,0x70(%rsp)
    bc43:	48 8d 05 d7 64 0a 00 	lea    0xa64d7(%rip),%rax        # b2121 <__rseq_flags+0x11d>
    bc4a:	48 89 44 24 78       	mov    %rax,0x78(%rsp)
    bc4f:	48 c7 84 24 80 00 00 	movq   $0x0,0x80(%rsp)
    bc56:	00 00 00 00 00 
    bc5b:	bf 01 00 00 00       	mov    $0x1,%edi
    bc60:	e8 db 7a 03 00       	call   43740 <__sleep>
    bc65:	bd 01 00 00 00       	mov    $0x1,%ebp
    bc6a:	eb 0d                	jmp    bc79 <dont_run_me+0x130>
    bc6c:	83 c5 01             	add    $0x1,%ebp
    bc6f:	bf 02 00 00 00       	mov    $0x2,%edi
    bc74:	e8 c7 7a 03 00       	call   43740 <__sleep>
    bc79:	48 8d 3d aa 64 0a 00 	lea    0xa64aa(%rip),%rdi        # b212a <__rseq_flags+0x126>
    bc80:	b8 00 00 00 00       	mov    $0x0,%eax
    bc85:	e8 a6 53 00 00       	call   11030 <_IO_printf>
    bc8a:	48 8d 3d a4 64 0a 00 	lea    0xa64a4(%rip),%rdi        # b2135 <__rseq_flags+0x131>
    bc91:	b8 00 00 00 00       	mov    $0x0,%eax
    bc96:	e8 95 53 00 00       	call   11030 <_IO_printf>
    bc9b:	44 89 e3             	mov    %r12d,%ebx
    bc9e:	39 dd                	cmp    %ebx,%ebp
    bca0:	7e ca                	jle    bc6c <dont_run_me+0x123>
    bca2:	48 63 c3             	movslq %ebx,%rax
    bca5:	48 8b 3c c4          	mov    (%rsp,%rax,8),%rdi
    bca9:	48 85 ff             	test   %rdi,%rdi
    bcac:	74 be                	je     bc6c <dont_run_me+0x123>
    bcae:	e8 2d 5b 01 00       	call   217e0 <_IO_puts>
    bcb3:	83 c3 01             	add    $0x1,%ebx
    bcb6:	eb e6                	jmp    bc9e <dont_run_me+0x155>

000000000000bcb8 <setup>:
    bcb8:	41 54                	push   %r12
    bcba:	55                   	push   %rbp
    bcbb:	53                   	push   %rbx
    bcbc:	48 89 fb             	mov    %rdi,%rbx
    bcbf:	e8 e3 f9 ff ff       	call   b6a7 <setup_signal_handlers>
    bcc4:	48 89 df             	mov    %rbx,%rdi
    bcc7:	e8 23 fa ff ff       	call   b6ef <setup_input>
    bccc:	e8 96 fa ff ff       	call   b767 <next_input>
    bcd1:	49 89 c4             	mov    %rax,%r12
    bcd4:	bd 00 00 00 00       	mov    $0x0,%ebp
    bcd9:	83 fd 07             	cmp    $0x7,%ebp
    bcdc:	7f 31                	jg     bd0f <setup+0x57>
    bcde:	48 63 c5             	movslq %ebp,%rax
    bce1:	41 0f b6 1c 04       	movzbl (%r12,%rax,1),%ebx
    bce6:	80 fb 40             	cmp    $0x40,%bl
    bce9:	74 24                	je     bd0f <setup+0x57>
    bceb:	e8 40 35 00 00       	call   f230 <__ctype_toupper_loc>
    bcf0:	48 0f be db          	movsbq %bl,%rbx
    bcf4:	48 c1 e3 02          	shl    $0x2,%rbx
    bcf8:	48 03 18             	add    (%rax),%rbx
    bcfb:	8b 0b                	mov    (%rbx),%ecx
    bcfd:	48 63 c5             	movslq %ebp,%rax
    bd00:	48 8d 15 69 84 0e 00 	lea    0xe8469(%rip),%rdx        # f4170 <userID>
    bd07:	88 0c 02             	mov    %cl,(%rdx,%rax,1)
    bd0a:	83 c5 01             	add    $0x1,%ebp
    bd0d:	eb ca                	jmp    bcd9 <setup+0x21>
    bd0f:	48 63 c5             	movslq %ebp,%rax
    bd12:	41 80 3c 04 40       	cmpb   $0x40,(%r12,%rax,1)
    bd17:	0f 85 99 00 00 00    	jne    bdb6 <setup+0xfe>
    bd1d:	48 8d 3d 4c 84 0e 00 	lea    0xe844c(%rip),%rdi        # f4170 <userID>
    bd24:	e8 b7 f6 ff ff       	call   b3e0 <check_userid>
    bd29:	be 00 00 00 00       	mov    $0x0,%esi
    bd2e:	48 8d 3d 23 94 0a 00 	lea    0xa9423(%rip),%rdi        # b5158 <slashdot.0+0x10bb>
    bd35:	e8 36 86 03 00       	call   44370 <__access>
    bd3a:	85 c0                	test   %eax,%eax
    bd3c:	0f 84 9b 00 00 00    	je     bddd <setup+0x125>
    bd42:	c7 05 e4 e0 0e 00 00 	movl   $0x0,0xee0e4(%rip)        # f9e30 <hash>
    bd49:	00 00 00 
    bd4c:	8b 05 1e 84 0e 00    	mov    0xe841e(%rip),%eax        # f4170 <userID>
    bd52:	33 05 1c 84 0e 00    	xor    0xe841c(%rip),%eax        # f4174 <userID+0x4>
    bd58:	89 c2                	mov    %eax,%edx
    bd5a:	f7 d2                	not    %edx
    bd5c:	89 15 ce e0 0e 00    	mov    %edx,0xee0ce(%rip)        # f9e30 <hash>
    bd62:	85 d2                	test   %edx,%edx
    bd64:	78 7c                	js     bde2 <setup+0x12a>
    bd66:	8b 15 c4 e0 0e 00    	mov    0xee0c4(%rip),%edx        # f9e30 <hash>
    bd6c:	48 8d 35 fd 83 0e 00 	lea    0xe83fd(%rip),%rsi        # f4170 <userID>
    bd73:	48 8d 3d fe 93 0a 00 	lea    0xa93fe(%rip),%rdi        # b5178 <slashdot.0+0x10db>
    bd7a:	b8 00 00 00 00       	mov    $0x0,%eax
    bd7f:	e8 ac 52 00 00       	call   11030 <_IO_printf>
    bd84:	8b 05 a6 e0 0e 00    	mov    0xee0a6(%rip),%eax        # f9e30 <hash>
    bd8a:	48 89 c7             	mov    %rax,%rdi
    bd8d:	48 c1 e7 20          	shl    $0x20,%rdi
    bd91:	f7 d0                	not    %eax
    bd93:	48 98                	cltq   
    bd95:	48 01 c7             	add    %rax,%rdi
    bd98:	e8 3b f6 ff ff       	call   b3d8 <pb_srand>
    bd9d:	e8 4d f7 ff ff       	call   b4ef <setup01>
    bda2:	e8 90 f7 ff ff       	call   b537 <setup02>
    bda7:	e8 98 f8 ff ff       	call   b644 <setup06>
    bdac:	e8 ad f8 ff ff       	call   b65e <setup07>
    bdb1:	5b                   	pop    %rbx
    bdb2:	5d                   	pop    %rbp
    bdb3:	41 5c                	pop    %r12
    bdb5:	c3                   	ret    
    bdb6:	4c 89 e1             	mov    %r12,%rcx
    bdb9:	89 ea                	mov    %ebp,%edx
    bdbb:	48 8d 35 56 93 0a 00 	lea    0xa9356(%rip),%rsi        # b5118 <slashdot.0+0x107b>
    bdc2:	48 8b 3d bf 8b 0e 00 	mov    0xe8bbf(%rip),%rdi        # f4988 <stderr>
    bdc9:	b8 00 00 00 00       	mov    $0x0,%eax
    bdce:	e8 fd 4e 00 00       	call   10cd0 <__fprintf>
    bdd3:	bf 01 00 00 00       	mov    $0x1,%edi
    bdd8:	e8 43 3e 00 00       	call   fc20 <exit>
    bddd:	e8 67 fd ff ff       	call   bb49 <dont_run_me>
    bde2:	83 c0 01             	add    $0x1,%eax
    bde5:	89 05 45 e0 0e 00    	mov    %eax,0xee045(%rip)        # f9e30 <hash>
    bdeb:	e9 76 ff ff ff       	jmp    bd66 <setup+0xae>

000000000000bdf0 <end_now>:
    bdf0:	53                   	push   %rbx
    bdf1:	48 81 ec 10 01 00 00 	sub    $0x110,%rsp
    bdf8:	64 48 8b 04 25 28 00 	mov    %fs:0x28,%rax
    bdff:	00 00 
    be01:	48 89 84 24 08 01 00 	mov    %rax,0x108(%rsp)
    be08:	00 
    be09:	31 c0                	xor    %eax,%eax
    be0b:	8b 05 77 83 0e 00    	mov    0xe8377(%rip),%eax        # f4188 <points+0x8>
    be11:	03 05 6d 83 0e 00    	add    0xe836d(%rip),%eax        # f4184 <points+0x4>
    be17:	03 05 6f 83 0e 00    	add    0xe836f(%rip),%eax        # f418c <points+0xc>
    be1d:	03 05 6d 83 0e 00    	add    0xe836d(%rip),%eax        # f4190 <points+0x10>
    be23:	03 05 6b 83 0e 00    	add    0xe836b(%rip),%eax        # f4194 <points+0x14>
    be29:	03 05 69 83 0e 00    	add    0xe8369(%rip),%eax        # f4198 <points+0x18>
    be2f:	03 05 67 83 0e 00    	add    0xe8367(%rip),%eax        # f419c <points+0x1c>
    be35:	39 05 f9 df 0e 00    	cmp    %eax,0xedff9(%rip)        # f9e34 <score>
    be3b:	74 2f                	je     be6c <end_now+0x7c>
    be3d:	48 8d 3d 2c 83 0e 00 	lea    0xe832c(%rip),%rdi        # f4170 <userID>
    be44:	e8 97 f5 ff ff       	call   b3e0 <check_userid>
    be49:	85 c0                	test   %eax,%eax
    be4b:	0f 84 f1 00 00 00    	je     bf42 <end_now+0x152>
    be51:	48 8d 3d 48 93 0a 00 	lea    0xa9348(%rip),%rdi        # b51a0 <slashdot.0+0x1103>
    be58:	e8 83 59 01 00       	call   217e0 <_IO_puts>
    be5d:	e8 c4 f8 ff ff       	call   b726 <close_input>
    be62:	bf 00 00 00 00       	mov    $0x0,%edi
    be67:	e8 b4 3d 00 00       	call   fc20 <exit>
    be6c:	48 8d 3d c9 62 0a 00 	lea    0xa62c9(%rip),%rdi        # b213c <__rseq_flags+0x138>
    be73:	e8 68 59 01 00       	call   217e0 <_IO_puts>
    be78:	48 8d 3d d8 62 0a 00 	lea    0xa62d8(%rip),%rdi        # b2157 <__rseq_flags+0x153>
    be7f:	e8 5c 59 01 00       	call   217e0 <_IO_puts>
    be84:	48 8d bc 24 80 00 00 	lea    0x80(%rsp),%rdi
    be8b:	00 
    be8c:	b9 20 00 00 00       	mov    $0x20,%ecx
    be91:	b8 00 00 00 00       	mov    $0x0,%eax
    be96:	f3 ab                	rep stos %eax,%es:(%rdi)
    be98:	48 8d 94 24 80 00 00 	lea    0x80(%rsp),%rdx
    be9f:	00 
    bea0:	48 8d 35 c0 62 0a 00 	lea    0xa62c0(%rip),%rsi        # b2167 <__rseq_flags+0x163>
    bea7:	48 8d 3d 12 a0 0e 00 	lea    0xea012(%rip),%rdi        # f5ec0 <inputs+0x100>
    beae:	e8 50 fb ff ff       	call   ba03 <sscanf_pb>
    beb3:	83 f8 01             	cmp    $0x1,%eax
    beb6:	74 69                	je     bf21 <end_now+0x131>
    beb8:	48 89 e2             	mov    %rsp,%rdx
    bebb:	48 8d 35 c0 62 0a 00 	lea    0xa62c0(%rip),%rsi        # b2182 <__rseq_flags+0x17e>
    bec2:	48 8d 3d f7 a0 0e 00 	lea    0xea0f7(%rip),%rdi        # f5fc0 <inputs+0x200>
    bec9:	b8 00 00 00 00       	mov    $0x0,%eax
    bece:	e8 7d 4f 00 00       	call   10e50 <__isoc23_sscanf>
    bed3:	89 c3                	mov    %eax,%ebx
    bed5:	48 8d 7c 24 40       	lea    0x40(%rsp),%rdi
    beda:	48 8d 0d b4 62 0a 00 	lea    0xa62b4(%rip),%rcx        # b2195 <__rseq_flags+0x191>
    bee1:	48 8d 15 88 82 0e 00 	lea    0xe8288(%rip),%rdx        # f4170 <userID>
    bee8:	48 8d 35 b2 62 0a 00 	lea    0xa62b2(%rip),%rsi        # b21a1 <__rseq_flags+0x19d>
    beef:	b8 00 00 00 00       	mov    $0x0,%eax
    bef4:	e8 07 52 00 00       	call   11100 <_IO_sprintf>
    bef9:	83 fb 01             	cmp    $0x1,%ebx
    befc:	0f 85 3b ff ff ff    	jne    be3d <end_now+0x4d>
    bf02:	48 8d 74 24 40       	lea    0x40(%rsp),%rsi
    bf07:	48 89 e7             	mov    %rsp,%rdi
    bf0a:	e8 e6 fa ff ff       	call   b9f5 <strcmp_pb>
    bf0f:	85 c0                	test   %eax,%eax
    bf11:	0f 85 26 ff ff ff    	jne    be3d <end_now+0x4d>
    bf17:	e8 98 fb ff ff       	call   bab4 <secret_phase>
    bf1c:	e9 1c ff ff ff       	jmp    be3d <end_now+0x4d>
    bf21:	48 8d bc 24 80 00 00 	lea    0x80(%rsp),%rdi
    bf28:	00 
    bf29:	48 8d 35 42 62 0a 00 	lea    0xa6242(%rip),%rsi        # b2172 <__rseq_flags+0x16e>
    bf30:	e8 c0 fa ff ff       	call   b9f5 <strcmp_pb>
    bf35:	85 c0                	test   %eax,%eax
    bf37:	0f 85 7b ff ff ff    	jne    beb8 <end_now+0xc8>
    bf3d:	e8 07 fc ff ff       	call   bb49 <dont_run_me>
    bf42:	8b 15 34 82 0e 00    	mov    0xe8234(%rip),%edx        # f417c <max_score>
    bf48:	8b 35 e6 de 0e 00    	mov    0xedee6(%rip),%esi        # f9e34 <score>
    bf4e:	48 8d 3d 52 62 0a 00 	lea    0xa6252(%rip),%rdi        # b21a7 <__rseq_flags+0x1a3>
    bf55:	b8 00 00 00 00       	mov    $0x0,%eax
    bf5a:	e8 d1 50 00 00       	call   11030 <_IO_printf>
    bf5f:	e9 f9 fe ff ff       	jmp    be5d <end_now+0x6d>

000000000000bf64 <failure>:
    bf64:	53                   	push   %rbx
    bf65:	48 89 fb             	mov    %rdi,%rbx
    bf68:	bf 0a 00 00 00       	mov    $0xa,%edi
    bf6d:	e8 9e 5e 01 00       	call   21e10 <putchar>
    bf72:	48 8d 3d 5f 92 0a 00 	lea    0xa925f(%rip),%rdi        # b51d8 <slashdot.0+0x113b>
    bf79:	e8 62 58 01 00       	call   217e0 <_IO_puts>
    bf7e:	48 89 de             	mov    %rbx,%rsi
    bf81:	48 8d 3d 39 62 0a 00 	lea    0xa6239(%rip),%rdi        # b21c1 <__rseq_flags+0x1bd>
    bf88:	b8 00 00 00 00       	mov    $0x0,%eax
    bf8d:	e8 9e 50 00 00       	call   11030 <_IO_printf>
    bf92:	e8 59 fe ff ff       	call   bdf0 <end_now>

000000000000bf97 <phase01>:
    bf97:	48 83 ec 08          	sub    $0x8,%rsp
    bf9b:	e8 99 f9 ff ff       	call   b939 <next_line>
    bfa0:	48 89 c7             	mov    %rax,%rdi
    bfa3:	48 8b 35 7e de 0e 00 	mov    0xede7e(%rip),%rsi        # f9e28 <quote>
    bfaa:	e8 46 fa ff ff       	call   b9f5 <strcmp_pb>
    bfaf:	85 c0                	test   %eax,%eax
    bfb1:	75 05                	jne    bfb8 <phase01+0x21>
    bfb3:	48 83 c4 08          	add    $0x8,%rsp
    bfb7:	c3                   	ret    
    bfb8:	48 8d 3d 49 92 0a 00 	lea    0xa9249(%rip),%rdi        # b5208 <slashdot.0+0x116b>
    bfbf:	e8 a0 ff ff ff       	call   bf64 <failure>

000000000000bfc4 <phase02>:
    bfc4:	48 83 ec 18          	sub    $0x18,%rsp
    bfc8:	64 48 8b 04 25 28 00 	mov    %fs:0x28,%rax
    bfcf:	00 00 
    bfd1:	48 89 44 24 08       	mov    %rax,0x8(%rsp)
    bfd6:	31 c0                	xor    %eax,%eax
    bfd8:	e8 5c f9 ff ff       	call   b939 <next_line>
    bfdd:	48 89 c7             	mov    %rax,%rdi
    bfe0:	48 8d 4c 24 04       	lea    0x4(%rsp),%rcx
    bfe5:	48 89 e2             	mov    %rsp,%rdx
    bfe8:	48 8d 35 e5 61 0a 00 	lea    0xa61e5(%rip),%rsi        # b21d4 <__rseq_flags+0x1d0>
    bfef:	b8 00 00 00 00       	mov    $0x0,%eax
    bff4:	e8 0a fa ff ff       	call   ba03 <sscanf_pb>
    bff9:	83 f8 01             	cmp    $0x1,%eax
    bffc:	7e 39                	jle    c037 <phase02+0x73>
    bffe:	8b 04 24             	mov    (%rsp),%eax
    c001:	83 f8 01             	cmp    $0x1,%eax
    c004:	74 3d                	je     c043 <phase02+0x7f>
    c006:	8b 54 24 04          	mov    0x4(%rsp),%edx
    c00a:	83 fa 01             	cmp    $0x1,%edx
    c00d:	74 34                	je     c043 <phase02+0x7f>
    c00f:	85 c0                	test   %eax,%eax
    c011:	78 30                	js     c043 <phase02+0x7f>
    c013:	85 d2                	test   %edx,%edx
    c015:	78 2c                	js     c043 <phase02+0x7f>
    c017:	0f af c2             	imul   %edx,%eax
    c01a:	39 05 00 de 0e 00    	cmp    %eax,0xede00(%rip)        # f9e20 <RAND_UMVAL>
    c020:	75 2d                	jne    c04f <phase02+0x8b>
    c022:	48 8b 44 24 08       	mov    0x8(%rsp),%rax
    c027:	64 48 2b 04 25 28 00 	sub    %fs:0x28,%rax
    c02e:	00 00 
    c030:	75 29                	jne    c05b <phase02+0x97>
    c032:	48 83 c4 18          	add    $0x18,%rsp
    c036:	c3                   	ret    
    c037:	48 8d 3d 02 92 0a 00 	lea    0xa9202(%rip),%rdi        # b5240 <slashdot.0+0x11a3>
    c03e:	e8 21 ff ff ff       	call   bf64 <failure>
    c043:	48 8d 3d 36 92 0a 00 	lea    0xa9236(%rip),%rdi        # b5280 <slashdot.0+0x11e3>
    c04a:	e8 15 ff ff ff       	call   bf64 <failure>
    c04f:	48 8d 3d 92 92 0a 00 	lea    0xa9292(%rip),%rdi        # b52e8 <slashdot.0+0x124b>
    c056:	e8 09 ff ff ff       	call   bf64 <failure>
    c05b:	e8 10 a0 03 00       	call   46070 <__stack_chk_fail>

000000000000c060 <phase03>:
    c060:	55                   	push   %rbp
    c061:	53                   	push   %rbx
    c062:	48 83 ec 18          	sub    $0x18,%rsp
    c066:	64 48 8b 04 25 28 00 	mov    %fs:0x28,%rax
    c06d:	00 00 
    c06f:	48 89 44 24 08       	mov    %rax,0x8(%rsp)
    c074:	31 c0                	xor    %eax,%eax
    c076:	e8 be f8 ff ff       	call   b939 <next_line>
    c07b:	48 89 c7             	mov    %rax,%rdi
    c07e:	48 8d 54 24 04       	lea    0x4(%rsp),%rdx
    c083:	48 8d 35 4d 61 0a 00 	lea    0xa614d(%rip),%rsi        # b21d7 <__rseq_flags+0x1d3>
    c08a:	b8 00 00 00 00       	mov    $0x0,%eax
    c08f:	e8 6f f9 ff ff       	call   ba03 <sscanf_pb>
    c094:	85 c0                	test   %eax,%eax
    c096:	7e 27                	jle    c0bf <phase03+0x5f>
    c098:	e8 19 f3 ff ff       	call   b3b6 <pb_rand>
    c09d:	89 c3                	mov    %eax,%ebx
    c09f:	ba cd cc cc cc       	mov    $0xcccccccd,%edx
    c0a4:	48 0f af da          	imul   %rdx,%rbx
    c0a8:	48 c1 eb 23          	shr    $0x23,%rbx
    c0ac:	8d 14 9b             	lea    (%rbx,%rbx,4),%edx
    c0af:	01 d2                	add    %edx,%edx
    c0b1:	29 d0                	sub    %edx,%eax
    c0b3:	89 c3                	mov    %eax,%ebx
    c0b5:	83 c3 01             	add    $0x1,%ebx
    c0b8:	bd 00 00 00 00       	mov    $0x0,%ebp
    c0bd:	eb 50                	jmp    c10f <phase03+0xaf>
    c0bf:	48 8d 3d 7a 91 0a 00 	lea    0xa917a(%rip),%rdi        # b5240 <slashdot.0+0x11a3>
    c0c6:	e8 99 fe ff ff       	call   bf64 <failure>
    c0cb:	83 ea 06             	sub    $0x6,%edx
    c0ce:	83 fa 01             	cmp    $0x1,%edx
    c0d1:	77 11                	ja     c0e4 <phase03+0x84>
    c0d3:	83 eb 07             	sub    $0x7,%ebx
    c0d6:	eb 34                	jmp    c10c <phase03+0xac>
    c0d8:	83 f8 0d             	cmp    $0xd,%eax
    c0db:	74 2c                	je     c109 <phase03+0xa9>
    c0dd:	76 09                	jbe    c0e8 <phase03+0x88>
    c0df:	83 f8 0e             	cmp    $0xe,%eax
    c0e2:	74 28                	je     c10c <phase03+0xac>
    c0e4:	f7 db                	neg    %ebx
    c0e6:	eb 24                	jmp    c10c <phase03+0xac>
    c0e8:	83 ea 0a             	sub    $0xa,%edx
    c0eb:	83 fa 01             	cmp    $0x1,%edx
    c0ee:	76 0e                	jbe    c0fe <phase03+0x9e>
    c0f0:	eb f2                	jmp    c0e4 <phase03+0x84>
    c0f2:	83 c3 01             	add    $0x1,%ebx
    c0f5:	eb 15                	jmp    c10c <phase03+0xac>
    c0f7:	01 db                	add    %ebx,%ebx
    c0f9:	eb 11                	jmp    c10c <phase03+0xac>
    c0fb:	83 c3 02             	add    $0x2,%ebx
    c0fe:	8d 04 dd 00 00 00 00 	lea    0x0(,%rbx,8),%eax
    c105:	29 d8                	sub    %ebx,%eax
    c107:	89 c3                	mov    %eax,%ebx
    c109:	83 eb 03             	sub    $0x3,%ebx
    c10c:	83 c5 01             	add    $0x1,%ebp
    c10f:	83 fd 09             	cmp    $0x9,%ebp
    c112:	7f 44                	jg     c158 <phase03+0xf8>
    c114:	e8 9d f2 ff ff       	call   b3b6 <pb_rand>
    c119:	89 c2                	mov    %eax,%edx
    c11b:	b9 89 88 88 88       	mov    $0x88888889,%ecx
    c120:	48 0f af d1          	imul   %rcx,%rdx
    c124:	48 c1 ea 23          	shr    $0x23,%rdx
    c128:	89 d1                	mov    %edx,%ecx
    c12a:	c1 e1 04             	shl    $0x4,%ecx
    c12d:	29 d1                	sub    %edx,%ecx
    c12f:	29 c8                	sub    %ecx,%eax
    c131:	89 c2                	mov    %eax,%edx
    c133:	83 f8 09             	cmp    $0x9,%eax
    c136:	77 a0                	ja     c0d8 <phase03+0x78>
    c138:	83 f8 08             	cmp    $0x8,%eax
    c13b:	73 be                	jae    c0fb <phase03+0x9b>
    c13d:	83 f8 05             	cmp    $0x5,%eax
    c140:	77 89                	ja     c0cb <phase03+0x6b>
    c142:	83 f8 03             	cmp    $0x3,%eax
    c145:	73 b0                	jae    c0f7 <phase03+0x97>
    c147:	85 c0                	test   %eax,%eax
    c149:	74 a7                	je     c0f2 <phase03+0x92>
    c14b:	83 ea 01             	sub    $0x1,%edx
    c14e:	83 fa 01             	cmp    $0x1,%edx
    c151:	77 91                	ja     c0e4 <phase03+0x84>
    c153:	83 c3 05             	add    $0x5,%ebx
    c156:	eb b4                	jmp    c10c <phase03+0xac>
    c158:	39 5c 24 04          	cmp    %ebx,0x4(%rsp)
    c15c:	75 17                	jne    c175 <phase03+0x115>
    c15e:	48 8b 44 24 08       	mov    0x8(%rsp),%rax
    c163:	64 48 2b 04 25 28 00 	sub    %fs:0x28,%rax
    c16a:	00 00 
    c16c:	75 13                	jne    c181 <phase03+0x121>
    c16e:	48 83 c4 18          	add    $0x18,%rsp
    c172:	5b                   	pop    %rbx
    c173:	5d                   	pop    %rbp
    c174:	c3                   	ret    
    c175:	48 8d 3d ac 91 0a 00 	lea    0xa91ac(%rip),%rdi        # b5328 <slashdot.0+0x128b>
    c17c:	e8 e3 fd ff ff       	call   bf64 <failure>
    c181:	e8 ea 9e 03 00       	call   46070 <__stack_chk_fail>

000000000000c186 <phase04>:
    c186:	48 83 ec 28          	sub    $0x28,%rsp
    c18a:	64 48 8b 04 25 28 00 	mov    %fs:0x28,%rax
    c191:	00 00 
    c193:	48 89 44 24 18       	mov    %rax,0x18(%rsp)
    c198:	31 c0                	xor    %eax,%eax
    c19a:	e8 9a f7 ff ff       	call   b939 <next_line>
    c19f:	48 89 c7             	mov    %rax,%rdi
    c1a2:	48 89 e2             	mov    %rsp,%rdx
    c1a5:	48 8d 4c 24 04       	lea    0x4(%rsp),%rcx
    c1aa:	4c 8d 4c 24 0c       	lea    0xc(%rsp),%r9
    c1af:	4c 8d 44 24 08       	lea    0x8(%rsp),%r8
    c1b4:	48 8d 35 13 60 0a 00 	lea    0xa6013(%rip),%rsi        # b21ce <__rseq_flags+0x1ca>
    c1bb:	b8 00 00 00 00       	mov    $0x0,%eax
    c1c0:	e8 3e f8 ff ff       	call   ba03 <sscanf_pb>
    c1c5:	83 f8 03             	cmp    $0x3,%eax
    c1c8:	7e 07                	jle    c1d1 <phase04+0x4b>
    c1ca:	ba 00 00 00 00       	mov    $0x0,%edx
    c1cf:	eb 18                	jmp    c1e9 <phase04+0x63>
    c1d1:	48 8d 3d 68 90 0a 00 	lea    0xa9068(%rip),%rdi        # b5240 <slashdot.0+0x11a3>
    c1d8:	e8 87 fd ff ff       	call   bf64 <failure>
    c1dd:	b8 00 00 00 00       	mov    $0x0,%eax
    c1e2:	85 c0                	test   %eax,%eax
    c1e4:	74 26                	je     c20c <phase04+0x86>
    c1e6:	83 c2 01             	add    $0x1,%edx
    c1e9:	83 fa 03             	cmp    $0x3,%edx
    c1ec:	7f 2a                	jg     c218 <phase04+0x92>
    c1ee:	b8 00 00 00 00       	mov    $0x0,%eax
    c1f3:	83 f8 03             	cmp    $0x3,%eax
    c1f6:	7f e5                	jg     c1dd <phase04+0x57>
    c1f8:	48 63 c8             	movslq %eax,%rcx
    c1fb:	39 14 8c             	cmp    %edx,(%rsp,%rcx,4)
    c1fe:	74 05                	je     c205 <phase04+0x7f>
    c200:	83 c0 01             	add    $0x1,%eax
    c203:	eb ee                	jmp    c1f3 <phase04+0x6d>
    c205:	b8 01 00 00 00       	mov    $0x1,%eax
    c20a:	eb d6                	jmp    c1e2 <phase04+0x5c>
    c20c:	48 8d 3d 7d 91 0a 00 	lea    0xa917d(%rip),%rdi        # b5390 <slashdot.0+0x12f3>
    c213:	e8 4c fd ff ff       	call   bf64 <failure>
    c218:	48 63 04 24          	movslq (%rsp),%rax
    c21c:	0f b6 15 4d 7f 0e 00 	movzbl 0xe7f4d(%rip),%edx        # f4170 <userID>
    c223:	88 54 04 14          	mov    %dl,0x14(%rsp,%rax,1)
    c227:	48 63 44 24 04       	movslq 0x4(%rsp),%rax
    c22c:	0f b6 15 3e 7f 0e 00 	movzbl 0xe7f3e(%rip),%edx        # f4171 <userID+0x1>
    c233:	88 54 04 14          	mov    %dl,0x14(%rsp,%rax,1)
    c237:	48 63 44 24 08       	movslq 0x8(%rsp),%rax
    c23c:	0f b6 15 2f 7f 0e 00 	movzbl 0xe7f2f(%rip),%edx        # f4172 <userID+0x2>
    c243:	88 54 04 14          	mov    %dl,0x14(%rsp,%rax,1)
    c247:	48 63 44 24 0c       	movslq 0xc(%rsp),%rax
    c24c:	0f b6 15 20 7f 0e 00 	movzbl 0xe7f20(%rip),%edx        # f4173 <userID+0x3>
    c253:	88 54 04 14          	mov    %dl,0x14(%rsp,%rax,1)
    c257:	b8 00 00 00 00       	mov    $0x0,%eax
    c25c:	83 f8 02             	cmp    $0x2,%eax
    c25f:	7f 21                	jg     c282 <phase04+0xfc>
    c261:	48 63 c8             	movslq %eax,%rcx
    c264:	83 c0 01             	add    $0x1,%eax
    c267:	48 63 d0             	movslq %eax,%rdx
    c26a:	0f b6 74 14 14       	movzbl 0x14(%rsp,%rdx,1),%esi
    c26f:	40 38 74 0c 14       	cmp    %sil,0x14(%rsp,%rcx,1)
    c274:	7e e6                	jle    c25c <phase04+0xd6>
    c276:	48 8d 3d 3b 91 0a 00 	lea    0xa913b(%rip),%rdi        # b53b8 <slashdot.0+0x131b>
    c27d:	e8 e2 fc ff ff       	call   bf64 <failure>
    c282:	48 8b 44 24 18       	mov    0x18(%rsp),%rax
    c287:	64 48 2b 04 25 28 00 	sub    %fs:0x28,%rax
    c28e:	00 00 
    c290:	75 05                	jne    c297 <phase04+0x111>
    c292:	48 83 c4 28          	add    $0x28,%rsp
    c296:	c3                   	ret    
    c297:	e8 d4 9d 03 00       	call   46070 <__stack_chk_fail>

000000000000c29c <phase05>:
    c29c:	48 83 ec 18          	sub    $0x18,%rsp
    c2a0:	64 48 8b 04 25 28 00 	mov    %fs:0x28,%rax
    c2a7:	00 00 
    c2a9:	48 89 44 24 08       	mov    %rax,0x8(%rsp)
    c2ae:	31 c0                	xor    %eax,%eax
    c2b0:	e8 84 f6 ff ff       	call   b939 <next_line>
    c2b5:	48 89 c7             	mov    %rax,%rdi
    c2b8:	c7 44 24 04 ff ff ff 	movl   $0xffffffff,0x4(%rsp)
    c2bf:	ff 
    c2c0:	48 8d 54 24 04       	lea    0x4(%rsp),%rdx
    c2c5:	48 8d 35 0e 5f 0a 00 	lea    0xa5f0e(%rip),%rsi        # b21da <__rseq_flags+0x1d6>
    c2cc:	b8 00 00 00 00       	mov    $0x0,%eax
    c2d1:	e8 2d f7 ff ff       	call   ba03 <sscanf_pb>
    c2d6:	85 c0                	test   %eax,%eax
    c2d8:	7e 19                	jle    c2f3 <phase05+0x57>
    c2da:	e8 d7 f0 ff ff       	call   b3b6 <pb_rand>
    c2df:	25 ff 01 00 00       	and    $0x1ff,%eax
    c2e4:	83 c0 64             	add    $0x64,%eax
    c2e7:	b9 00 00 00 00       	mov    $0x0,%ecx
    c2ec:	be 00 00 00 00       	mov    $0x0,%esi
    c2f1:	eb 2a                	jmp    c31d <phase05+0x81>
    c2f3:	48 8d 3d 46 8f 0a 00 	lea    0xa8f46(%rip),%rdi        # b5240 <slashdot.0+0x11a3>
    c2fa:	e8 65 fc ff ff       	call   bf64 <failure>
    c2ff:	48 8d 3d da 90 0a 00 	lea    0xa90da(%rip),%rdi        # b53e0 <slashdot.0+0x1343>
    c306:	e8 59 fc ff ff       	call   bf64 <failure>
    c30b:	ba 01 00 00 00       	mov    $0x1,%edx
    c310:	d3 e2                	shl    %cl,%edx
    c312:	23 54 24 04          	and    0x4(%rsp),%edx
    c316:	75 24                	jne    c33c <phase05+0xa0>
    c318:	d1 e8                	shr    %eax
    c31a:	83 c1 01             	add    $0x1,%ecx
    c31d:	83 fe 02             	cmp    $0x2,%esi
    c320:	77 26                	ja     c348 <phase05+0xac>
    c322:	a8 01                	test   $0x1,%al
    c324:	74 e5                	je     c30b <phase05+0x6f>
    c326:	ba 01 00 00 00       	mov    $0x1,%edx
    c32b:	d3 e2                	shl    %cl,%edx
    c32d:	23 54 24 04          	and    0x4(%rsp),%edx
    c331:	74 cc                	je     c2ff <phase05+0x63>
    c333:	83 c6 01             	add    $0x1,%esi
    c336:	8d 44 40 01          	lea    0x1(%rax,%rax,2),%eax
    c33a:	eb de                	jmp    c31a <phase05+0x7e>
    c33c:	48 8d 3d bd 90 0a 00 	lea    0xa90bd(%rip),%rdi        # b5400 <slashdot.0+0x1363>
    c343:	e8 1c fc ff ff       	call   bf64 <failure>
    c348:	48 8b 44 24 08       	mov    0x8(%rsp),%rax
    c34d:	64 48 2b 04 25 28 00 	sub    %fs:0x28,%rax
    c354:	00 00 
    c356:	75 05                	jne    c35d <phase05+0xc1>
    c358:	48 83 c4 18          	add    $0x18,%rsp
    c35c:	c3                   	ret    
    c35d:	e8 0e 9d 03 00       	call   46070 <__stack_chk_fail>

000000000000c362 <phase06>:
    c362:	41 54                	push   %r12
    c364:	55                   	push   %rbp
    c365:	53                   	push   %rbx
    c366:	48 81 ec b0 00 00 00 	sub    $0xb0,%rsp
    c36d:	64 48 8b 04 25 28 00 	mov    %fs:0x28,%rax
    c374:	00 00 
    c376:	48 89 84 24 a8 00 00 	mov    %rax,0xa8(%rsp)
    c37d:	00 
    c37e:	31 c0                	xor    %eax,%eax
    c380:	e8 b4 f5 ff ff       	call   b939 <next_line>
    c385:	48 89 c3             	mov    %rax,%rbx
    c388:	48 b8 56 69 63 74 6f 	movabs $0x2179726f74636956,%rax
    c38f:	72 79 21 
    c392:	48 89 44 24 0e       	mov    %rax,0xe(%rsp)
    c397:	c6 44 24 16 00       	movb   $0x0,0x16(%rsp)
    c39c:	48 b8 5f 5f 5f 5f 5f 	movabs $0x5f5f5f5f5f5f5f5f,%rax
    c3a3:	5f 5f 5f 
    c3a6:	48 89 44 24 17       	mov    %rax,0x17(%rsp)
    c3ab:	c6 44 24 1f 00       	movb   $0x0,0x1f(%rsp)
    c3b0:	48 8d 7c 24 0e       	lea    0xe(%rsp),%rdi
    c3b5:	e8 96 cd ff ff       	call   9150 <_init+0x150>
    c3ba:	49 89 c4             	mov    %rax,%r12
    c3bd:	89 c5                	mov    %eax,%ebp
    c3bf:	48 89 df             	mov    %rbx,%rdi
    c3c2:	e8 89 cd ff ff       	call   9150 <_init+0x150>
    c3c7:	4d 63 e4             	movslq %r12d,%r12
    c3ca:	4c 39 e0             	cmp    %r12,%rax
    c3cd:	72 1d                	jb     c3ec <phase06+0x8a>
    c3cf:	b8 00 00 00 00       	mov    $0x0,%eax
    c3d4:	39 e8                	cmp    %ebp,%eax
    c3d6:	7d 2c                	jge    c404 <phase06+0xa2>
    c3d8:	48 63 d0             	movslq %eax,%rdx
    c3db:	0f b6 14 13          	movzbl (%rbx,%rdx,1),%edx
    c3df:	83 ea 21             	sub    $0x21,%edx
    c3e2:	80 fa 5d             	cmp    $0x5d,%dl
    c3e5:	77 11                	ja     c3f8 <phase06+0x96>
    c3e7:	83 c0 01             	add    $0x1,%eax
    c3ea:	eb e8                	jmp    c3d4 <phase06+0x72>
    c3ec:	48 8d 3d 35 90 0a 00 	lea    0xa9035(%rip),%rdi        # b5428 <slashdot.0+0x138b>
    c3f3:	e8 6c fb ff ff       	call   bf64 <failure>
    c3f8:	48 8d 3d 51 90 0a 00 	lea    0xa9051(%rip),%rdi        # b5450 <slashdot.0+0x13b3>
    c3ff:	e8 60 fb ff ff       	call   bf64 <failure>
    c404:	48 8d 3d d5 7c 0e 00 	lea    0xe7cd5(%rip),%rdi        # f40e0 <letters>
    c40b:	e8 40 cd ff ff       	call   9150 <_init+0x150>
    c410:	89 c7                	mov    %eax,%edi
    c412:	b9 00 00 00 00       	mov    $0x0,%ecx
    c417:	eb 46                	jmp    c45f <phase06+0xfd>
    c419:	66 0f 1f 44 00 00    	nopw   0x0(%rax,%rax,1)
    c41f:	66 66 2e 0f 1f 84 00 	data16 cs nopw 0x0(%rax,%rax,1)
    c426:	00 00 00 00 
    c42a:	66 66 2e 0f 1f 84 00 	data16 cs nopw 0x0(%rax,%rax,1)
    c431:	00 00 00 00 
    c435:	66 66 2e 0f 1f 84 00 	data16 cs nopw 0x0(%rax,%rax,1)
    c43c:	00 00 00 00 
    c440:	48 63 f1             	movslq %ecx,%rsi
    c443:	0f be 04 33          	movsbl (%rbx,%rsi,1),%eax
    c447:	99                   	cltd   
    c448:	f7 ff                	idiv   %edi
    c44a:	48 63 d2             	movslq %edx,%rdx
    c44d:	48 8d 05 8c 7c 0e 00 	lea    0xe7c8c(%rip),%rax        # f40e0 <letters>
    c454:	0f b6 04 10          	movzbl (%rax,%rdx,1),%eax
    c458:	88 44 34 17          	mov    %al,0x17(%rsp,%rsi,1)
    c45c:	83 c1 01             	add    $0x1,%ecx
    c45f:	39 e9                	cmp    %ebp,%ecx
    c461:	7c dd                	jl     c440 <phase06+0xde>
    c463:	48 8d 74 24 0e       	lea    0xe(%rsp),%rsi
    c468:	48 8d 7c 24 17       	lea    0x17(%rsp),%rdi
    c46d:	e8 83 f5 ff ff       	call   b9f5 <strcmp_pb>
    c472:	85 c0                	test   %eax,%eax
    c474:	75 1f                	jne    c495 <phase06+0x133>
    c476:	48 8b 84 24 a8 00 00 	mov    0xa8(%rsp),%rax
    c47d:	00 
    c47e:	64 48 2b 04 25 28 00 	sub    %fs:0x28,%rax
    c485:	00 00 
    c487:	75 32                	jne    c4bb <phase06+0x159>
    c489:	48 81 c4 b0 00 00 00 	add    $0xb0,%rsp
    c490:	5b                   	pop    %rbx
    c491:	5d                   	pop    %rbp
    c492:	41 5c                	pop    %r12
    c494:	c3                   	ret    
    c495:	48 8d 54 24 17       	lea    0x17(%rsp),%rdx
    c49a:	48 8d 5c 24 20       	lea    0x20(%rsp),%rbx
    c49f:	48 8d 35 f2 8f 0a 00 	lea    0xa8ff2(%rip),%rsi        # b5498 <slashdot.0+0x13fb>
    c4a6:	48 89 df             	mov    %rbx,%rdi
    c4a9:	b8 00 00 00 00       	mov    $0x0,%eax
    c4ae:	e8 4d 4c 00 00       	call   11100 <_IO_sprintf>
    c4b3:	48 89 df             	mov    %rbx,%rdi
    c4b6:	e8 a9 fa ff ff       	call   bf64 <failure>
    c4bb:	e8 b0 9b 03 00       	call   46070 <__stack_chk_fail>

000000000000c4c0 <phase07>:
    c4c0:	53                   	push   %rbx
    c4c1:	48 83 ec 20          	sub    $0x20,%rsp
    c4c5:	64 48 8b 04 25 28 00 	mov    %fs:0x28,%rax
    c4cc:	00 00 
    c4ce:	48 89 44 24 18       	mov    %rax,0x18(%rsp)
    c4d3:	31 c0                	xor    %eax,%eax
    c4d5:	bb 00 00 00 00       	mov    $0x0,%ebx
    c4da:	eb 23                	jmp    c4ff <phase07+0x3f>
    c4dc:	e8 86 f2 ff ff       	call   b767 <next_input>
    c4e1:	48 89 c7             	mov    %rax,%rdi
    c4e4:	ba 0a 00 00 00       	mov    $0xa,%edx
    c4e9:	be 00 00 00 00       	mov    $0x0,%esi
    c4ee:	e8 3d 38 00 00       	call   fd30 <__isoc23_strtoimax>
    c4f3:	48 89 c2             	mov    %rax,%rdx
    c4f6:	48 63 c3             	movslq %ebx,%rax
    c4f9:	89 14 84             	mov    %edx,(%rsp,%rax,4)
    c4fc:	83 c3 01             	add    $0x1,%ebx
    c4ff:	83 fb 05             	cmp    $0x5,%ebx
    c502:	7e d8                	jle    c4dc <phase07+0x1c>
    c504:	e8 5e f2 ff ff       	call   b767 <next_input>
    c509:	48 89 c7             	mov    %rax,%rdi
    c50c:	ba 0a 00 00 00       	mov    $0xa,%edx
    c511:	be 00 00 00 00       	mov    $0x0,%esi
    c516:	e8 15 38 00 00       	call   fd30 <__isoc23_strtoimax>
    c51b:	b9 00 00 00 00       	mov    $0x0,%ecx
    c520:	eb 21                	jmp    c543 <phase07+0x83>
    c522:	0f 1f 84 00 00 00 00 	nopl   0x0(%rax,%rax,1)
    c529:	00 
    c52a:	66 66 2e 0f 1f 84 00 	data16 cs nopw 0x0(%rax,%rax,1)
    c531:	00 00 00 00 
    c535:	66 66 2e 0f 1f 84 00 	data16 cs nopw 0x0(%rax,%rax,1)
    c53c:	00 00 00 00 
    c540:	83 c1 01             	add    $0x1,%ecx
    c543:	83 f9 05             	cmp    $0x5,%ecx
    c546:	7f 29                	jg     c571 <phase07+0xb1>
    c548:	48 63 d1             	movslq %ecx,%rdx
    c54b:	8b 14 94             	mov    (%rsp,%rdx,4),%edx
    c54e:	85 d2                	test   %edx,%edx
    c550:	78 ee                	js     c540 <phase07+0x80>
    c552:	48 63 d2             	movslq %edx,%rdx
    c555:	48 c1 e2 04          	shl    $0x4,%rdx
    c559:	48 8d 3d 60 d8 0e 00 	lea    0xed860(%rip),%rdi        # f9dc0 <intlist_nodes>
    c560:	48 01 fa             	add    %rdi,%rdx
    c563:	48 63 f1             	movslq %ecx,%rsi
    c566:	48 c1 e6 04          	shl    $0x4,%rsi
    c56a:	48 89 54 37 08       	mov    %rdx,0x8(%rdi,%rsi,1)
    c56f:	eb cf                	jmp    c540 <phase07+0x80>
    c571:	48 98                	cltq   
    c573:	48 c1 e0 04          	shl    $0x4,%rax
    c577:	48 8d 15 42 d8 0e 00 	lea    0xed842(%rip),%rdx        # f9dc0 <intlist_nodes>
    c57e:	48 01 d0             	add    %rdx,%rax
    c581:	b9 00 00 00 00       	mov    $0x0,%ecx
    c586:	eb 0f                	jmp    c597 <phase07+0xd7>
    c588:	48 8d 3d 4e 5c 0a 00 	lea    0xa5c4e(%rip),%rdi        # b21dd <__rseq_flags+0x1d9>
    c58f:	e8 d0 f9 ff ff       	call   bf64 <failure>
    c594:	48 89 d0             	mov    %rdx,%rax
    c597:	48 85 c0             	test   %rax,%rax
    c59a:	74 24                	je     c5c0 <phase07+0x100>
    c59c:	83 78 04 00          	cmpl   $0x0,0x4(%rax)
    c5a0:	75 1e                	jne    c5c0 <phase07+0x100>
    c5a2:	c7 40 04 01 00 00 00 	movl   $0x1,0x4(%rax)
    c5a9:	83 c1 01             	add    $0x1,%ecx
    c5ac:	48 8b 50 08          	mov    0x8(%rax),%rdx
    c5b0:	48 85 d2             	test   %rdx,%rdx
    c5b3:	74 df                	je     c594 <phase07+0xd4>
    c5b5:	8b 1a                	mov    (%rdx),%ebx
    c5b7:	39 18                	cmp    %ebx,(%rax)
    c5b9:	7f cd                	jg     c588 <phase07+0xc8>
    c5bb:	48 89 d0             	mov    %rdx,%rax
    c5be:	eb d7                	jmp    c597 <phase07+0xd7>
    c5c0:	83 f9 06             	cmp    $0x6,%ecx
    c5c3:	75 16                	jne    c5db <phase07+0x11b>
    c5c5:	48 8b 44 24 18       	mov    0x18(%rsp),%rax
    c5ca:	64 48 2b 04 25 28 00 	sub    %fs:0x28,%rax
    c5d1:	00 00 
    c5d3:	75 12                	jne    c5e7 <phase07+0x127>
    c5d5:	48 83 c4 20          	add    $0x20,%rsp
    c5d9:	5b                   	pop    %rbx
    c5da:	c3                   	ret    
    c5db:	48 8d 3d ee 8e 0a 00 	lea    0xa8eee(%rip),%rdi        # b54d0 <slashdot.0+0x1433>
    c5e2:	e8 7d f9 ff ff       	call   bf64 <failure>
    c5e7:	e8 84 9a 03 00       	call   46070 <__stack_chk_fail>

000000000000c5ec <main>:
    c5ec:	41 56                	push   %r14
    c5ee:	53                   	push   %rbx
    c5ef:	48 83 ec 08          	sub    $0x8,%rsp
    c5f3:	41 89 fe             	mov    %edi,%r14d
    c5f6:	48 89 f3             	mov    %rsi,%rbx
    c5f9:	48 8d 3d f8 8e 0a 00 	lea    0xa8ef8(%rip),%rdi        # b54f8 <slashdot.0+0x145b>
    c600:	e8 db 51 01 00       	call   217e0 <_IO_puts>
    c605:	48 8d 3d 1c 8f 0a 00 	lea    0xa8f1c(%rip),%rdi        # b5528 <slashdot.0+0x148b>
    c60c:	e8 cf 51 01 00       	call   217e0 <_IO_puts>
    c611:	41 83 fe 01          	cmp    $0x1,%r14d
    c615:	7f 45                	jg     c65c <main+0x70>
    c617:	48 8b 33             	mov    (%rbx),%rsi
    c61a:	48 8d 3d cf 5b 0a 00 	lea    0xa5bcf(%rip),%rdi        # b21f0 <__rseq_flags+0x1ec>
    c621:	b8 00 00 00 00       	mov    $0x0,%eax
    c626:	e8 05 4a 00 00       	call   11030 <_IO_printf>
    c62b:	48 8d 3d 16 8f 0a 00 	lea    0xa8f16(%rip),%rdi        # b5548 <slashdot.0+0x14ab>
    c632:	e8 a9 51 01 00       	call   217e0 <_IO_puts>
    c637:	48 8d 3d 42 8f 0a 00 	lea    0xa8f42(%rip),%rdi        # b5580 <slashdot.0+0x14e3>
    c63e:	e8 9d 51 01 00       	call   217e0 <_IO_puts>
    c643:	48 8d 3d ba 5b 0a 00 	lea    0xa5bba(%rip),%rdi        # b2204 <__rseq_flags+0x200>
    c64a:	e8 91 51 01 00       	call   217e0 <_IO_puts>
    c64f:	b8 01 00 00 00       	mov    $0x1,%eax
    c654:	48 83 c4 08          	add    $0x8,%rsp
    c658:	5b                   	pop    %rbx
    c659:	41 5e                	pop    %r14
    c65b:	c3                   	ret    
    c65c:	48 8b 7b 08          	mov    0x8(%rbx),%rdi
    c660:	e8 53 f6 ff ff       	call   bcb8 <setup>
    c665:	bf 0a 00 00 00       	mov    $0xa,%edi
    c66a:	e8 a1 57 01 00       	call   21e10 <putchar>
    c66f:	48 8d 3d 52 8f 0a 00 	lea    0xa8f52(%rip),%rdi        # b55c8 <slashdot.0+0x152b>
    c676:	e8 65 51 01 00       	call   217e0 <_IO_puts>
    c67b:	48 8d 3d 7e 8f 0a 00 	lea    0xa8f7e(%rip),%rdi        # b5600 <slashdot.0+0x1563>
    c682:	e8 59 51 01 00       	call   217e0 <_IO_puts>
    c687:	48 8d 3d a2 8f 0a 00 	lea    0xa8fa2(%rip),%rdi        # b5630 <slashdot.0+0x1593>
    c68e:	e8 4d 51 01 00       	call   217e0 <_IO_puts>
    c693:	48 8d 3d ce 8f 0a 00 	lea    0xa8fce(%rip),%rdi        # b5668 <slashdot.0+0x15cb>
    c69a:	e8 41 51 01 00       	call   217e0 <_IO_puts>
    c69f:	bf 0a 00 00 00       	mov    $0xa,%edi
    c6a4:	e8 67 57 01 00       	call   21e10 <putchar>
    c6a9:	48 8d 3d e0 8f 0a 00 	lea    0xa8fe0(%rip),%rdi        # b5690 <slashdot.0+0x15f3>
    c6b0:	e8 2b 51 01 00       	call   217e0 <_IO_puts>
    c6b5:	e8 3e f1 ff ff       	call   b7f8 <skip_check>
    c6ba:	85 c0                	test   %eax,%eax
    c6bc:	0f 84 9b 00 00 00    	je     c75d <main+0x171>
    c6c2:	48 8d 3d 4a 5b 0a 00 	lea    0xa5b4a(%rip),%rdi        # b2213 <__rseq_flags+0x20f>
    c6c9:	e8 12 51 01 00       	call   217e0 <_IO_puts>
    c6ce:	e8 25 f1 ff ff       	call   b7f8 <skip_check>
    c6d3:	85 c0                	test   %eax,%eax
    c6d5:	0f 84 98 00 00 00    	je     c773 <main+0x187>
    c6db:	48 8d 3d de 8f 0a 00 	lea    0xa8fde(%rip),%rdi        # b56c0 <slashdot.0+0x1623>
    c6e2:	e8 f9 50 01 00       	call   217e0 <_IO_puts>
    c6e7:	e8 0c f1 ff ff       	call   b7f8 <skip_check>
    c6ec:	85 c0                	test   %eax,%eax
    c6ee:	0f 84 95 00 00 00    	je     c789 <main+0x19d>
    c6f4:	48 8d 3d 15 90 0a 00 	lea    0xa9015(%rip),%rdi        # b5710 <slashdot.0+0x1673>
    c6fb:	e8 e0 50 01 00       	call   217e0 <_IO_puts>
    c700:	e8 f3 f0 ff ff       	call   b7f8 <skip_check>
    c705:	85 c0                	test   %eax,%eax
    c707:	0f 84 92 00 00 00    	je     c79f <main+0x1b3>
    c70d:	48 8d 3d 24 90 0a 00 	lea    0xa9024(%rip),%rdi        # b5738 <slashdot.0+0x169b>
    c714:	e8 c7 50 01 00       	call   217e0 <_IO_puts>
    c719:	e8 da f0 ff ff       	call   b7f8 <skip_check>
    c71e:	85 c0                	test   %eax,%eax
    c720:	0f 84 8f 00 00 00    	je     c7b5 <main+0x1c9>
    c726:	48 8d 3d 6b 90 0a 00 	lea    0xa906b(%rip),%rdi        # b5798 <slashdot.0+0x16fb>
    c72d:	e8 ae 50 01 00       	call   217e0 <_IO_puts>
    c732:	e8 c1 f0 ff ff       	call   b7f8 <skip_check>
    c737:	85 c0                	test   %eax,%eax
    c739:	0f 84 8c 00 00 00    	je     c7cb <main+0x1df>
    c73f:	48 8d 3d b2 90 0a 00 	lea    0xa90b2(%rip),%rdi        # b57f8 <slashdot.0+0x175b>
    c746:	e8 95 50 01 00       	call   217e0 <_IO_puts>
    c74b:	e8 a8 f0 ff ff       	call   b7f8 <skip_check>
    c750:	85 c0                	test   %eax,%eax
    c752:	0f 84 89 00 00 00    	je     c7e1 <main+0x1f5>
    c758:	e8 93 f6 ff ff       	call   bdf0 <end_now>
    c75d:	e8 35 f8 ff ff       	call   bf97 <phase01>
    c762:	8b 05 1c 7a 0e 00    	mov    0xe7a1c(%rip),%eax        # f4184 <points+0x4>
    c768:	01 05 c6 d6 0e 00    	add    %eax,0xed6c6(%rip)        # f9e34 <score>
    c76e:	e9 4f ff ff ff       	jmp    c6c2 <main+0xd6>
    c773:	e8 4c f8 ff ff       	call   bfc4 <phase02>
    c778:	8b 05 0a 7a 0e 00    	mov    0xe7a0a(%rip),%eax        # f4188 <points+0x8>
    c77e:	01 05 b0 d6 0e 00    	add    %eax,0xed6b0(%rip)        # f9e34 <score>
    c784:	e9 52 ff ff ff       	jmp    c6db <main+0xef>
    c789:	e8 d2 f8 ff ff       	call   c060 <phase03>
    c78e:	8b 05 f8 79 0e 00    	mov    0xe79f8(%rip),%eax        # f418c <points+0xc>
    c794:	01 05 9a d6 0e 00    	add    %eax,0xed69a(%rip)        # f9e34 <score>
    c79a:	e9 55 ff ff ff       	jmp    c6f4 <main+0x108>
    c79f:	e8 e2 f9 ff ff       	call   c186 <phase04>
    c7a4:	8b 05 e6 79 0e 00    	mov    0xe79e6(%rip),%eax        # f4190 <points+0x10>
    c7aa:	01 05 84 d6 0e 00    	add    %eax,0xed684(%rip)        # f9e34 <score>
    c7b0:	e9 58 ff ff ff       	jmp    c70d <main+0x121>
    c7b5:	e8 e2 fa ff ff       	call   c29c <phase05>
    c7ba:	8b 05 d4 79 0e 00    	mov    0xe79d4(%rip),%eax        # f4194 <points+0x14>
    c7c0:	01 05 6e d6 0e 00    	add    %eax,0xed66e(%rip)        # f9e34 <score>
    c7c6:	e9 5b ff ff ff       	jmp    c726 <main+0x13a>
    c7cb:	e8 92 fb ff ff       	call   c362 <phase06>
    c7d0:	8b 05 c2 79 0e 00    	mov    0xe79c2(%rip),%eax        # f4198 <points+0x18>
    c7d6:	01 05 58 d6 0e 00    	add    %eax,0xed658(%rip)        # f9e34 <score>
    c7dc:	e9 5e ff ff ff       	jmp    c73f <main+0x153>
    c7e1:	e8 da fc ff ff       	call   c4c0 <phase07>
    c7e6:	8b 05 b0 79 0e 00    	mov    0xe79b0(%rip),%eax        # f419c <points+0x1c>
    c7ec:	01 05 42 d6 0e 00    	add    %eax,0xed642(%rip)        # f9e34 <score>
    c7f2:	e9 61 ff ff ff       	jmp    c758 <main+0x16c>
    c7f7:	66 0f 1f 84 00 00 00 	nopw   0x0(%rax,%rax,1)
    c7fe:	00 00 

000000000000c800 <call_fini>:
    c800:	f3 0f 1e fa          	endbr64 
    c804:	55                   	push   %rbp
    c805:	48 8d 05 e4 2c 0e 00 	lea    0xe2ce4(%rip),%rax        # ef4f0 <__fini_array_start>
    c80c:	48 89 e5             	mov    %rsp,%rbp
    c80f:	41 54                	push   %r12
    c811:	53                   	push   %rbx
    c812:	48 8d 1d e7 2c 0e 00 	lea    0xe2ce7(%rip),%rbx        # ef500 <__fini_array_end>
    c819:	48 29 c3             	sub    %rax,%rbx
    c81c:	48 c1 fb 03          	sar    $0x3,%rbx
    c820:	74 18                	je     c83a <call_fini+0x3a>
    c822:	4c 8d 60 f8          	lea    -0x8(%rax),%r12
    c826:	66 2e 0f 1f 84 00 00 	cs nopw 0x0(%rax,%rax,1)
    c82d:	00 00 00 
    c830:	41 ff 14 dc          	call   *(%r12,%rbx,8)
    c834:	48 83 eb 01          	sub    $0x1,%rbx
    c838:	75 f6                	jne    c830 <call_fini+0x30>
    c83a:	5b                   	pop    %rbx
    c83b:	41 5c                	pop    %r12
    c83d:	5d                   	pop    %rbp
    c83e:	e9 bd 4b 0a 00       	jmp    b1400 <_fini>
    c843:	66 90                	xchg   %ax,%ax
    c845:	66 66 2e 0f 1f 84 00 	data16 cs nopw 0x0(%rax,%rax,1)
    c84c:	00 00 00 00 

000000000000c850 <handle_zhaoxin>:
    c850:	55                   	push   %rbp
    c851:	b8 04 00 00 00       	mov    $0x4,%eax
    c856:	31 c9                	xor    %ecx,%ecx
    c858:	48 89 e5             	mov    %rsp,%rbp
    c85b:	41 54                	push   %r12
    c85d:	53                   	push   %rbx
    c85e:	0f a2                	cpuid  
    c860:	89 c2                	mov    %eax,%edx
    c862:	83 e2 1f             	and    $0x1f,%edx
    c865:	0f 84 e0 00 00 00    	je     c94b <handle_zhaoxin+0xfb>
    c86b:	8d b7 3e ff ff ff    	lea    -0xc2(%rdi),%esi
    c871:	41 89 f8             	mov    %edi,%r8d
    c874:	44 8d 97 49 ff ff ff 	lea    -0xb7(%rdi),%r10d
    c87b:	83 fe 02             	cmp    $0x2,%esi
    c87e:	44 8d 8f 44 ff ff ff 	lea    -0xbc(%rdi),%r9d
    c885:	41 0f 96 c3          	setbe  %r11b
    c889:	31 f6                	xor    %esi,%esi
    c88b:	eb 20                	jmp    c8ad <handle_zhaoxin+0x5d>
    c88d:	0f 1f 00             	nopl   (%rax)
    c890:	41 83 f9 02          	cmp    $0x2,%r9d
    c894:	76 4a                	jbe    c8e0 <handle_zhaoxin+0x90>
    c896:	83 c6 01             	add    $0x1,%esi
    c899:	b8 04 00 00 00       	mov    $0x4,%eax
    c89e:	89 f1                	mov    %esi,%ecx
    c8a0:	0f a2                	cpuid  
    c8a2:	89 c2                	mov    %eax,%edx
    c8a4:	83 e2 1f             	and    $0x1f,%edx
    c8a7:	0f 84 9e 00 00 00    	je     c94b <handle_zhaoxin+0xfb>
    c8ad:	c1 e8 05             	shr    $0x5,%eax
    c8b0:	83 e0 07             	and    $0x7,%eax
    c8b3:	83 f8 01             	cmp    $0x1,%eax
    c8b6:	41 0f 94 c4          	sete   %r12b
    c8ba:	83 fa 01             	cmp    $0x1,%edx
    c8bd:	75 05                	jne    c8c4 <handle_zhaoxin+0x74>
    c8bf:	45 84 e4             	test   %r12b,%r12b
    c8c2:	75 cc                	jne    c890 <handle_zhaoxin+0x40>
    c8c4:	83 fa 02             	cmp    $0x2,%edx
    c8c7:	0f 85 82 00 00 00    	jne    c94f <handle_zhaoxin+0xff>
    c8cd:	45 84 e4             	test   %r12b,%r12b
    c8d0:	74 7d                	je     c94f <handle_zhaoxin+0xff>
    c8d2:	41 83 fa 04          	cmp    $0x4,%r10d
    c8d6:	77 be                	ja     c896 <handle_zhaoxin+0x46>
    c8d8:	0f 1f 84 00 00 00 00 	nopl   0x0(%rax,%rax,1)
    c8df:	00 
    c8e0:	b8 ab aa aa aa       	mov    $0xaaaaaaab,%eax
    c8e5:	41 8d 90 47 ff ff ff 	lea    -0xb9(%r8),%edx
    c8ec:	48 0f af d0          	imul   %rax,%rdx
    c8f0:	48 c1 ea 21          	shr    $0x21,%rdx
    c8f4:	8d 04 52             	lea    (%rdx,%rdx,2),%eax
    c8f7:	41 8d 90 47 ff ff ff 	lea    -0xb9(%r8),%edx
    c8fe:	29 c2                	sub    %eax,%edx
    c900:	89 d8                	mov    %ebx,%eax
    c902:	74 1c                	je     c920 <handle_zhaoxin+0xd0>
    c904:	c1 e8 16             	shr    $0x16,%eax
    c907:	81 e3 ff 0f 00 00    	and    $0xfff,%ebx
    c90d:	83 ea 01             	sub    $0x1,%edx
    c910:	8d 48 01             	lea    0x1(%rax),%ecx
    c913:	48 8d 43 01          	lea    0x1(%rbx),%rax
    c917:	48 0f 44 c1          	cmove  %rcx,%rax
    c91b:	5b                   	pop    %rbx
    c91c:	41 5c                	pop    %r12
    c91e:	5d                   	pop    %rbp
    c91f:	c3                   	ret    
    c920:	89 da                	mov    %ebx,%edx
    c922:	c1 e8 16             	shr    $0x16,%eax
    c925:	83 c1 01             	add    $0x1,%ecx
    c928:	81 e2 ff 0f 00 00    	and    $0xfff,%edx
    c92e:	83 c0 01             	add    $0x1,%eax
    c931:	c1 eb 0c             	shr    $0xc,%ebx
    c934:	83 c2 01             	add    $0x1,%edx
    c937:	81 e3 ff 03 00 00    	and    $0x3ff,%ebx
    c93d:	0f af c2             	imul   %edx,%eax
    c940:	8d 53 01             	lea    0x1(%rbx),%edx
    c943:	0f af c1             	imul   %ecx,%eax
    c946:	0f af c2             	imul   %edx,%eax
    c949:	eb d0                	jmp    c91b <handle_zhaoxin+0xcb>
    c94b:	31 c0                	xor    %eax,%eax
    c94d:	eb cc                	jmp    c91b <handle_zhaoxin+0xcb>
    c94f:	41 8d 90 41 ff ff ff 	lea    -0xbf(%r8),%edx
    c956:	83 fa 02             	cmp    $0x2,%edx
    c959:	77 05                	ja     c960 <handle_zhaoxin+0x110>
    c95b:	83 f8 02             	cmp    $0x2,%eax
    c95e:	74 80                	je     c8e0 <handle_zhaoxin+0x90>
    c960:	83 f8 03             	cmp    $0x3,%eax
    c963:	0f 85 2d ff ff ff    	jne    c896 <handle_zhaoxin+0x46>
    c969:	45 84 db             	test   %r11b,%r11b
    c96c:	0f 85 6e ff ff ff    	jne    c8e0 <handle_zhaoxin+0x90>
    c972:	e9 1f ff ff ff       	jmp    c896 <handle_zhaoxin+0x46>
    c977:	66 0f 1f 84 00 00 00 	nopw   0x0(%rax,%rax,1)
    c97e:	00 00 

000000000000c980 <handle_amd>:
    c980:	89 fe                	mov    %edi,%esi
    c982:	31 ff                	xor    %edi,%edi
    c984:	81 fe c5 00 00 00    	cmp    $0xc5,%esi
    c98a:	0f 84 da 00 00 00    	je     ca6a <handle_amd+0xea>
    c990:	55                   	push   %rbp
    c991:	b8 00 00 00 80       	mov    $0x80000000,%eax
    c996:	48 89 e5             	mov    %rsp,%rbp
    c999:	53                   	push   %rbx
    c99a:	0f a2                	cpuid  
    c99c:	41 89 c0             	mov    %eax,%r8d
    c99f:	3d 1c 00 00 80       	cmp    $0x8000001c,%eax
    c9a4:	76 7f                	jbe    ca25 <handle_amd+0xa5>
    c9a6:	b9 03 00 00 00       	mov    $0x3,%ecx
    c9ab:	81 fe c1 00 00 00    	cmp    $0xc1,%esi
    c9b1:	7f 18                	jg     c9cb <handle_amd+0x4b>
    c9b3:	b9 02 00 00 00       	mov    $0x2,%ecx
    c9b8:	81 fe be 00 00 00    	cmp    $0xbe,%esi
    c9be:	7f 0b                	jg     c9cb <handle_amd+0x4b>
    c9c0:	31 c9                	xor    %ecx,%ecx
    c9c2:	81 fe bb 00 00 00    	cmp    $0xbb,%esi
    c9c8:	0f 9e c1             	setle  %cl
    c9cb:	b8 1d 00 00 80       	mov    $0x8000001d,%eax
    c9d0:	0f a2                	cpuid  
    c9d2:	41 89 c9             	mov    %ecx,%r9d
    c9d5:	85 c9                	test   %ecx,%ecx
    c9d7:	0f 84 91 00 00 00    	je     ca6e <handle_amd+0xee>
    c9dd:	8d 8e 47 ff ff ff    	lea    -0xb9(%rsi),%ecx
    c9e3:	b8 01 00 00 00       	mov    $0x1,%eax
    c9e8:	48 d3 e0             	shl    %cl,%rax
    c9eb:	a9 24 09 00 00       	test   $0x924,%eax
    c9f0:	0f 85 94 00 00 00    	jne    ca8a <handle_amd+0x10a>
    c9f6:	89 df                	mov    %ebx,%edi
    c9f8:	89 da                	mov    %ebx,%edx
    c9fa:	41 8d 49 01          	lea    0x1(%r9),%ecx
    c9fe:	c1 ef 16             	shr    $0x16,%edi
    ca01:	81 e2 ff 0f 00 00    	and    $0xfff,%edx
    ca07:	8d 77 01             	lea    0x1(%rdi),%esi
    ca0a:	83 c2 01             	add    $0x1,%edx
    ca0d:	48 89 f7             	mov    %rsi,%rdi
    ca10:	0f af fa             	imul   %edx,%edi
    ca13:	0f af f9             	imul   %ecx,%edi
    ca16:	a9 92 04 00 00       	test   $0x492,%eax
    ca1b:	48 0f 45 fe          	cmovne %rsi,%rdi
    ca1f:	48 89 f8             	mov    %rdi,%rax
    ca22:	5b                   	pop    %rbx
    ca23:	5d                   	pop    %rbp
    ca24:	c3                   	ret    
    ca25:	81 fe bf 00 00 00    	cmp    $0xbf,%esi
    ca2b:	b8 05 00 00 80       	mov    $0x80000005,%eax
    ca30:	ba 06 00 00 80       	mov    $0x80000006,%edx
    ca35:	0f 4d c2             	cmovge %edx,%eax
    ca38:	41 39 c0             	cmp    %eax,%r8d
    ca3b:	72 e2                	jb     ca1f <handle_amd+0x9f>
    ca3d:	0f a2                	cpuid  
    ca3f:	41 89 d1             	mov    %edx,%r9d
    ca42:	81 fe bb 00 00 00    	cmp    $0xbb,%esi
    ca48:	7e 39                	jle    ca83 <handle_amd+0x103>
    ca4a:	81 ee bd 00 00 00    	sub    $0xbd,%esi
    ca50:	83 fe 07             	cmp    $0x7,%esi
    ca53:	0f 87 de 01 00 00    	ja     cc37 <handle_amd+0x2b7>
    ca59:	48 8d 15 e0 df 0a 00 	lea    0xadfe0(%rip),%rdx        # baa40 <__PRETTY_FUNCTION__.0+0x3f8>
    ca60:	48 63 04 b2          	movslq (%rdx,%rsi,4),%rax
    ca64:	48 01 d0             	add    %rdx,%rax
    ca67:	3e ff e0             	notrack jmp *%rax
    ca6a:	48 89 f8             	mov    %rdi,%rax
    ca6d:	c3                   	ret    
    ca6e:	81 fe bf 00 00 00    	cmp    $0xbf,%esi
    ca74:	b8 05 00 00 80       	mov    $0x80000005,%eax
    ca79:	ba 06 00 00 80       	mov    $0x80000006,%edx
    ca7e:	0f 4d c2             	cmovge %edx,%eax
    ca81:	eb ba                	jmp    ca3d <handle_amd+0xbd>
    ca83:	83 c6 03             	add    $0x3,%esi
    ca86:	89 d1                	mov    %edx,%ecx
    ca88:	eb c0                	jmp    ca4a <handle_amd+0xca>
    ca8a:	89 d8                	mov    %ebx,%eax
    ca8c:	25 ff 0f 00 00       	and    $0xfff,%eax
    ca91:	48 8d 78 01          	lea    0x1(%rax),%rdi
    ca95:	eb 88                	jmp    ca1f <handle_amd+0x9f>
    ca97:	44 89 cf             	mov    %r9d,%edi
    ca9a:	48 8d 15 bf df 0a 00 	lea    0xadfbf(%rip),%rdx        # baa60 <__PRETTY_FUNCTION__.0+0x418>
    caa1:	c1 ef 0c             	shr    $0xc,%edi
    caa4:	83 e7 0f             	and    $0xf,%edi
    caa7:	48 63 04 ba          	movslq (%rdx,%rdi,4),%rax
    caab:	48 01 d0             	add    %rdx,%rax
    caae:	3e ff e0             	notrack jmp *%rax
    cab1:	0f b6 f9             	movzbl %cl,%edi
    cab4:	e9 66 ff ff ff       	jmp    ca1f <handle_amd+0x9f>
    cab9:	0f b6 f9             	movzbl %cl,%edi
    cabc:	31 c0                	xor    %eax,%eax
    cabe:	80 e5 f0             	and    $0xf0,%ch
    cac1:	48 0f 44 f8          	cmove  %rax,%rdi
    cac5:	e9 55 ff ff ff       	jmp    ca1f <handle_amd+0x9f>
    caca:	41 0f b6 f9          	movzbl %r9b,%edi
    cace:	31 c0                	xor    %eax,%eax
    cad0:	41 81 e1 00 f0 00 00 	and    $0xf000,%r9d
    cad7:	48 0f 44 f8          	cmove  %rax,%rdi
    cadb:	e9 3f ff ff ff       	jmp    ca1f <handle_amd+0x9f>
    cae0:	c1 e9 10             	shr    $0x10,%ecx
    cae3:	0f b6 f9             	movzbl %cl,%edi
    cae6:	c1 e1 02             	shl    $0x2,%ecx
    cae9:	81 e1 00 fc 03 00    	and    $0x3fc00,%ecx
    caef:	81 ff ff 00 00 00    	cmp    $0xff,%edi
    caf5:	48 0f 44 f9          	cmove  %rcx,%rdi
    caf9:	e9 21 ff ff ff       	jmp    ca1f <handle_amd+0x9f>
    cafe:	41 f7 c1 00 f0 00 00 	test   $0xf000,%r9d
    cb05:	0f 84 ae 00 00 00    	je     cbb9 <handle_amd+0x239>
    cb0b:	41 81 f8 07 00 00 80 	cmp    $0x80000007,%r8d
    cb12:	0f 87 2f 01 00 00    	ja     cc47 <handle_amd+0x2c7>
    cb18:	b8 01 00 00 00       	mov    $0x1,%eax
    cb1d:	0f a2                	cpuid  
    cb1f:	81 e2 00 00 00 10    	and    $0x10000000,%edx
    cb25:	0f 84 2e 01 00 00    	je     cc59 <handle_amd+0x2d9>
    cb2b:	89 d9                	mov    %ebx,%ecx
    cb2d:	c1 e9 10             	shr    $0x10,%ecx
    cb30:	81 e1 ff 00 00 00    	and    $0xff,%ecx
    cb36:	0f 84 1d 01 00 00    	je     cc59 <handle_amd+0x2d9>
    cb3c:	43 8d 04 09          	lea    (%r9,%r9,1),%eax
    cb40:	89 c9                	mov    %ecx,%ecx
    cb42:	25 00 00 f8 7f       	and    $0x7ff80000,%eax
    cb47:	48 99                	cqto   
    cb49:	48 f7 f9             	idiv   %rcx
    cb4c:	48 89 c7             	mov    %rax,%rdi
    cb4f:	83 3d 72 2c 0f 00 16 	cmpl   $0x16,0xf2c72(%rip)        # ff7c8 <_dl_x86_cpu_features+0x8>
    cb56:	0f 86 c3 fe ff ff    	jbe    ca1f <handle_amd+0x9f>
    cb5c:	b8 1d 00 00 80       	mov    $0x8000001d,%eax
    cb61:	b9 03 00 00 00       	mov    $0x3,%ecx
    cb66:	0f a2                	cpuid  
    cb68:	c1 e8 0e             	shr    $0xe,%eax
    cb6b:	25 ff 0f 00 00       	and    $0xfff,%eax
    cb70:	48 83 c0 01          	add    $0x1,%rax
    cb74:	48 0f af f8          	imul   %rax,%rdi
    cb78:	e9 a2 fe ff ff       	jmp    ca1f <handle_amd+0x9f>
    cb7d:	89 cf                	mov    %ecx,%edi
    cb7f:	31 c0                	xor    %eax,%eax
    cb81:	c1 ef 06             	shr    $0x6,%edi
    cb84:	81 e7 00 fc ff 03    	and    $0x3fffc00,%edi
    cb8a:	80 e5 f0             	and    $0xf0,%ch
    cb8d:	48 0f 44 f8          	cmove  %rax,%rdi
    cb91:	e9 89 fe ff ff       	jmp    ca1f <handle_amd+0x9f>
    cb96:	89 cf                	mov    %ecx,%edi
    cb98:	48 8d 35 01 df 0a 00 	lea    0xadf01(%rip),%rsi        # baaa0 <__PRETTY_FUNCTION__.0+0x458>
    cb9f:	c1 ef 0c             	shr    $0xc,%edi
    cba2:	89 f8                	mov    %edi,%eax
    cba4:	83 e0 0f             	and    $0xf,%eax
    cba7:	48 63 14 86          	movslq (%rsi,%rax,4),%rdx
    cbab:	48 01 f2             	add    %rsi,%rdx
    cbae:	3e ff e2             	notrack jmp *%rdx
    cbb1:	48 89 c7             	mov    %rax,%rdi
    cbb4:	e9 66 fe ff ff       	jmp    ca1f <handle_amd+0x9f>
    cbb9:	31 ff                	xor    %edi,%edi
    cbbb:	e9 5f fe ff ff       	jmp    ca1f <handle_amd+0x9f>
    cbc0:	bf 08 00 00 00       	mov    $0x8,%edi
    cbc5:	e9 55 fe ff ff       	jmp    ca1f <handle_amd+0x9f>
    cbca:	bf 20 00 00 00       	mov    $0x20,%edi
    cbcf:	e9 4b fe ff ff       	jmp    ca1f <handle_amd+0x9f>
    cbd4:	bf 10 00 00 00       	mov    $0x10,%edi
    cbd9:	e9 41 fe ff ff       	jmp    ca1f <handle_amd+0x9f>
    cbde:	bf 80 00 00 00       	mov    $0x80,%edi
    cbe3:	e9 37 fe ff ff       	jmp    ca1f <handle_amd+0x9f>
    cbe8:	bf 60 00 00 00       	mov    $0x60,%edi
    cbed:	e9 2d fe ff ff       	jmp    ca1f <handle_amd+0x9f>
    cbf2:	bf 40 00 00 00       	mov    $0x40,%edi
    cbf7:	e9 23 fe ff ff       	jmp    ca1f <handle_amd+0x9f>
    cbfc:	bf 30 00 00 00       	mov    $0x30,%edi
    cc01:	e9 19 fe ff ff       	jmp    ca1f <handle_amd+0x9f>
    cc06:	89 c8                	mov    %ecx,%eax
    cc08:	31 d2                	xor    %edx,%edx
    cc0a:	0f b6 c9             	movzbl %cl,%ecx
    cc0d:	c1 e8 06             	shr    $0x6,%eax
    cc10:	25 00 fc ff 03       	and    $0x3fffc00,%eax
    cc15:	f7 f1                	div    %ecx
    cc17:	89 c7                	mov    %eax,%edi
    cc19:	e9 01 fe ff ff       	jmp    ca1f <handle_amd+0x9f>
    cc1e:	43 8d 04 09          	lea    (%r9,%r9,1),%eax
    cc22:	31 d2                	xor    %edx,%edx
    cc24:	45 0f b6 c9          	movzbl %r9b,%r9d
    cc28:	25 00 00 f8 7f       	and    $0x7ff80000,%eax
    cc2d:	41 f7 f1             	div    %r9d
    cc30:	89 c7                	mov    %eax,%edi
    cc32:	e9 e8 fd ff ff       	jmp    ca1f <handle_amd+0x9f>
    cc37:	c1 e9 0e             	shr    $0xe,%ecx
    cc3a:	89 cf                	mov    %ecx,%edi
    cc3c:	81 e7 00 fc 03 00    	and    $0x3fc00,%edi
    cc42:	e9 d8 fd ff ff       	jmp    ca1f <handle_amd+0x9f>
    cc47:	b8 08 00 00 80       	mov    $0x80000008,%eax
    cc4c:	0f a2                	cpuid  
    cc4e:	0f b6 c9             	movzbl %cl,%ecx
    cc51:	83 c1 01             	add    $0x1,%ecx
    cc54:	e9 e3 fe ff ff       	jmp    cb3c <handle_amd+0x1bc>
    cc59:	31 ff                	xor    %edi,%edi
    cc5b:	e9 ef fe ff ff       	jmp    cb4f <handle_amd+0x1cf>

000000000000cc60 <handle_hygon>:
    cc60:	55                   	push   %rbp
    cc61:	be 03 00 00 00       	mov    $0x3,%esi
    cc66:	48 89 e5             	mov    %rsp,%rbp
    cc69:	53                   	push   %rbx
    cc6a:	81 ff c1 00 00 00    	cmp    $0xc1,%edi
    cc70:	7f 0d                	jg     cc7f <handle_hygon+0x1f>
    cc72:	be 02 00 00 00       	mov    $0x2,%esi
    cc77:	81 ff be 00 00 00    	cmp    $0xbe,%edi
    cc7d:	7e 51                	jle    ccd0 <handle_hygon+0x70>
    cc7f:	b8 1d 00 00 80       	mov    $0x8000001d,%eax
    cc84:	89 f1                	mov    %esi,%ecx
    cc86:	0f a2                	cpuid  
    cc88:	ba 01 00 00 00       	mov    $0x1,%edx
    cc8d:	89 ce                	mov    %ecx,%esi
    cc8f:	8d 8f 47 ff ff ff    	lea    -0xb9(%rdi),%ecx
    cc95:	41 89 d8             	mov    %ebx,%r8d
    cc98:	48 d3 e2             	shl    %cl,%rdx
    cc9b:	f7 c2 24 09 00 00    	test   $0x924,%edx
    cca1:	75 3b                	jne    ccde <handle_hygon+0x7e>
    cca3:	89 d8                	mov    %ebx,%eax
    cca5:	41 81 e0 ff 0f 00 00 	and    $0xfff,%r8d
    ccac:	83 c6 01             	add    $0x1,%esi
    ccaf:	c1 e8 16             	shr    $0x16,%eax
    ccb2:	41 83 c0 01          	add    $0x1,%r8d
    ccb6:	8d 48 01             	lea    0x1(%rax),%ecx
    ccb9:	48 89 c8             	mov    %rcx,%rax
    ccbc:	41 0f af c0          	imul   %r8d,%eax
    ccc0:	0f af c6             	imul   %esi,%eax
    ccc3:	f7 c2 92 04 00 00    	test   $0x492,%edx
    ccc9:	48 0f 45 c1          	cmovne %rcx,%rax
    cccd:	5b                   	pop    %rbx
    ccce:	5d                   	pop    %rbp
    cccf:	c3                   	ret    
    ccd0:	31 f6                	xor    %esi,%esi
    ccd2:	81 ff bb 00 00 00    	cmp    $0xbb,%edi
    ccd8:	40 0f 9e c6          	setle  %sil
    ccdc:	eb a1                	jmp    cc7f <handle_hygon+0x1f>
    ccde:	41 81 e0 ff 0f 00 00 	and    $0xfff,%r8d
    cce5:	49 8d 40 01          	lea    0x1(%r8),%rax
    cce9:	eb e2                	jmp    cccd <handle_hygon+0x6d>
    cceb:	0f 1f 44 00 00       	nopl   0x0(%rax,%rax,1)

000000000000ccf0 <_dl_tunable_set_prefer_map_32bit_exec>:
    ccf0:	f3 0f 1e fa          	endbr64 
    ccf4:	48 83 3f 00          	cmpq   $0x0,(%rdi)
    ccf8:	74 0a                	je     cd04 <_dl_tunable_set_prefer_map_32bit_exec+0x14>
    ccfa:	81 0d 10 2c 0f 00 00 	orl    $0x400,0xf2c10(%rip)        # ff914 <_dl_x86_cpu_features+0x154>
    cd01:	04 00 00 
    cd04:	c3                   	ret    
    cd05:	66 66 2e 0f 1f 84 00 	data16 cs nopw 0x0(%rax,%rax,1)
    cd0c:	00 00 00 00 

000000000000cd10 <__libc_start_call_main>:
    cd10:	55                   	push   %rbp
    cd11:	48 89 e5             	mov    %rsp,%rbp
    cd14:	48 81 ec 90 00 00 00 	sub    $0x90,%rsp
    cd1b:	48 89 7d 88          	mov    %rdi,-0x78(%rbp)
    cd1f:	48 8d 7d 90          	lea    -0x70(%rbp),%rdi
    cd23:	89 75 84             	mov    %esi,-0x7c(%rbp)
    cd26:	48 89 95 78 ff ff ff 	mov    %rdx,-0x88(%rbp)
    cd2d:	e8 8e 25 00 00       	call   f2c0 <_setjmp>
    cd32:	f3 0f 1e fa          	endbr64 
    cd36:	85 c0                	test   %eax,%eax
    cd38:	75 42                	jne    cd7c <__libc_start_call_main+0x6c>
    cd3a:	64 48 8b 04 25 00 03 	mov    %fs:0x300,%rax
    cd41:	00 00 
    cd43:	48 89 45 d8          	mov    %rax,-0x28(%rbp)
    cd47:	64 48 8b 04 25 f8 02 	mov    %fs:0x2f8,%rax
    cd4e:	00 00 
    cd50:	48 89 45 e0          	mov    %rax,-0x20(%rbp)
    cd54:	48 8d 45 90          	lea    -0x70(%rbp),%rax
    cd58:	64 48 89 04 25 00 03 	mov    %rax,%fs:0x300
    cd5f:	00 00 
    cd61:	48 8b 15 e0 28 0f 00 	mov    0xf28e0(%rip),%rdx        # ff648 <__environ>
    cd68:	48 8b b5 78 ff ff ff 	mov    -0x88(%rbp),%rsi
    cd6f:	8b 7d 84             	mov    -0x7c(%rbp),%edi
    cd72:	ff 55 88             	call   *-0x78(%rbp)
    cd75:	89 c7                	mov    %eax,%edi
    cd77:	e8 a4 2e 00 00       	call   fc20 <exit>
    cd7c:	e8 7f cd 01 00       	call   29b00 <__nptl_deallocate_tsd>
    cd81:	f0 83 2d 17 7c 0e 00 	lock subl $0x1,0xe7c17(%rip)        # f49a0 <__nptl_nthreads>
    cd88:	01 
    cd89:	74 10                	je     cd9b <__libc_start_call_main+0x8b>
    cd8b:	0f 1f 44 00 00       	nopl   0x0(%rax,%rax,1)
    cd90:	31 ff                	xor    %edi,%edi
    cd92:	b8 3c 00 00 00       	mov    $0x3c,%eax
    cd97:	0f 05                	syscall 
    cd99:	eb f5                	jmp    cd90 <__libc_start_call_main+0x80>
    cd9b:	31 c0                	xor    %eax,%eax
    cd9d:	eb d6                	jmp    cd75 <__libc_start_call_main+0x65>
    cd9f:	90                   	nop

000000000000cda0 <get_extended_indices.constprop.0>:
    cda0:	55                   	push   %rbp
    cda1:	b8 00 00 00 80       	mov    $0x80000000,%eax
    cda6:	48 89 e5             	mov    %rsp,%rbp
    cda9:	53                   	push   %rbx
    cdaa:	0f a2                	cpuid  
    cdac:	3d 00 00 00 80       	cmp    $0x80000000,%eax
    cdb1:	76 6f                	jbe    ce22 <get_extended_indices.constprop.0+0x82>
    cdb3:	89 c6                	mov    %eax,%esi
    cdb5:	b8 01 00 00 80       	mov    $0x80000001,%eax
    cdba:	0f a2                	cpuid  
    cdbc:	89 05 52 2a 0f 00    	mov    %eax,0xf2a52(%rip)        # ff814 <_dl_x86_cpu_features+0x54>
    cdc2:	89 1d 50 2a 0f 00    	mov    %ebx,0xf2a50(%rip)        # ff818 <_dl_x86_cpu_features+0x58>
    cdc8:	89 0d 4e 2a 0f 00    	mov    %ecx,0xf2a4e(%rip)        # ff81c <_dl_x86_cpu_features+0x5c>
    cdce:	89 15 4c 2a 0f 00    	mov    %edx,0xf2a4c(%rip)        # ff820 <_dl_x86_cpu_features+0x60>
    cdd4:	81 fe 06 00 00 80    	cmp    $0x80000006,%esi
    cdda:	76 46                	jbe    ce22 <get_extended_indices.constprop.0+0x82>
    cddc:	b8 07 00 00 80       	mov    $0x80000007,%eax
    cde1:	0f a2                	cpuid  
    cde3:	89 05 6b 2a 0f 00    	mov    %eax,0xf2a6b(%rip)        # ff854 <_dl_x86_cpu_features+0x94>
    cde9:	89 1d 69 2a 0f 00    	mov    %ebx,0xf2a69(%rip)        # ff858 <_dl_x86_cpu_features+0x98>
    cdef:	89 0d 67 2a 0f 00    	mov    %ecx,0xf2a67(%rip)        # ff85c <_dl_x86_cpu_features+0x9c>
    cdf5:	89 15 65 2a 0f 00    	mov    %edx,0xf2a65(%rip)        # ff860 <_dl_x86_cpu_features+0xa0>
    cdfb:	81 fe 07 00 00 80    	cmp    $0x80000007,%esi
    ce01:	74 1f                	je     ce22 <get_extended_indices.constprop.0+0x82>
    ce03:	b8 08 00 00 80       	mov    $0x80000008,%eax
    ce08:	0f a2                	cpuid  
    ce0a:	89 05 64 2a 0f 00    	mov    %eax,0xf2a64(%rip)        # ff874 <_dl_x86_cpu_features+0xb4>
    ce10:	89 1d 62 2a 0f 00    	mov    %ebx,0xf2a62(%rip)        # ff878 <_dl_x86_cpu_features+0xb8>
    ce16:	89 0d 60 2a 0f 00    	mov    %ecx,0xf2a60(%rip)        # ff87c <_dl_x86_cpu_features+0xbc>
    ce1c:	89 15 5e 2a 0f 00    	mov    %edx,0xf2a5e(%rip)        # ff880 <_dl_x86_cpu_features+0xc0>
    ce22:	5b                   	pop    %rbx
    ce23:	5d                   	pop    %rbp
    ce24:	c3                   	ret    
    ce25:	66 66 2e 0f 1f 84 00 	data16 cs nopw 0x0(%rax,%rax,1)
    ce2c:	00 00 00 00 

000000000000ce30 <get_common_indices.constprop.0>:
    ce30:	55                   	push   %rbp
    ce31:	48 89 e5             	mov    %rsp,%rbp
    ce34:	53                   	push   %rbx
    ce35:	48 85 ff             	test   %rdi,%rdi
    ce38:	74 58                	je     ce92 <get_common_indices.constprop.0+0x62>
    ce3a:	49 89 d0             	mov    %rdx,%r8
    ce3d:	49 89 c9             	mov    %rcx,%r9
    ce40:	b8 01 00 00 00       	mov    $0x1,%eax
    ce45:	0f a2                	cpuid  
    ce47:	89 15 93 29 0f 00    	mov    %edx,0xf2993(%rip)        # ff7e0 <_dl_x86_cpu_features+0x20>
    ce4d:	89 c2                	mov    %eax,%edx
    ce4f:	c1 ea 08             	shr    $0x8,%edx
    ce52:	89 1d 80 29 0f 00    	mov    %ebx,0xf2980(%rip)        # ff7d8 <_dl_x86_cpu_features+0x18>
    ce58:	83 e2 0f             	and    $0xf,%edx
    ce5b:	89 0d 7b 29 0f 00    	mov    %ecx,0xf297b(%rip)        # ff7dc <_dl_x86_cpu_features+0x1c>
    ce61:	89 05 6d 29 0f 00    	mov    %eax,0xf296d(%rip)        # ff7d4 <_dl_x86_cpu_features+0x14>
    ce67:	89 17                	mov    %edx,(%rdi)
    ce69:	89 c2                	mov    %eax,%edx
    ce6b:	c1 ea 04             	shr    $0x4,%edx
    ce6e:	83 e2 0f             	and    $0xf,%edx
    ce71:	89 16                	mov    %edx,(%rsi)
    ce73:	89 c2                	mov    %eax,%edx
    ce75:	c1 ea 0c             	shr    $0xc,%edx
    ce78:	81 e2 f0 00 00 00    	and    $0xf0,%edx
    ce7e:	41 89 10             	mov    %edx,(%r8)
    ce81:	89 c2                	mov    %eax,%edx
    ce83:	83 e2 0f             	and    $0xf,%edx
    ce86:	41 89 11             	mov    %edx,(%r9)
    ce89:	83 3f 0f             	cmpl   $0xf,(%rdi)
    ce8c:	0f 84 15 01 00 00    	je     cfa7 <get_common_indices.constprop.0+0x177>
    ce92:	83 3d 2b 29 0f 00 06 	cmpl   $0x6,0xf292b(%rip)        # ff7c4 <_dl_x86_cpu_features+0x4>
    ce99:	0f 8e c6 00 00 00    	jle    cf65 <get_common_indices.constprop.0+0x135>
    ce9f:	b8 07 00 00 00       	mov    $0x7,%eax
    cea4:	31 c9                	xor    %ecx,%ecx
    cea6:	0f a2                	cpuid  
    cea8:	89 05 46 29 0f 00    	mov    %eax,0xf2946(%rip)        # ff7f4 <_dl_x86_cpu_features+0x34>
    ceae:	b8 07 00 00 00       	mov    $0x7,%eax
    ceb3:	89 0d 43 29 0f 00    	mov    %ecx,0xf2943(%rip)        # ff7fc <_dl_x86_cpu_features+0x3c>
    ceb9:	b9 01 00 00 00       	mov    $0x1,%ecx
    cebe:	89 1d 34 29 0f 00    	mov    %ebx,0xf2934(%rip)        # ff7f8 <_dl_x86_cpu_features+0x38>
    cec4:	89 15 36 29 0f 00    	mov    %edx,0xf2936(%rip)        # ff800 <_dl_x86_cpu_features+0x40>
    ceca:	0f a2                	cpuid  
    cecc:	83 3d f1 28 0f 00 0c 	cmpl   $0xc,0xf28f1(%rip)        # ff7c4 <_dl_x86_cpu_features+0x4>
    ced3:	89 05 bb 29 0f 00    	mov    %eax,0xf29bb(%rip)        # ff894 <_dl_x86_cpu_features+0xd4>
    ced9:	89 1d b9 29 0f 00    	mov    %ebx,0xf29b9(%rip)        # ff898 <_dl_x86_cpu_features+0xd8>
    cedf:	89 0d b7 29 0f 00    	mov    %ecx,0xf29b7(%rip)        # ff89c <_dl_x86_cpu_features+0xdc>
    cee5:	89 15 b5 29 0f 00    	mov    %edx,0xf29b5(%rip)        # ff8a0 <_dl_x86_cpu_features+0xe0>
    ceeb:	7e 78                	jle    cf65 <get_common_indices.constprop.0+0x135>
    ceed:	b8 0d 00 00 00       	mov    $0xd,%eax
    cef2:	b9 01 00 00 00       	mov    $0x1,%ecx
    cef7:	0f a2                	cpuid  
    cef9:	83 3d c4 28 0f 00 13 	cmpl   $0x13,0xf28c4(%rip)        # ff7c4 <_dl_x86_cpu_features+0x4>
    cf00:	89 05 2e 29 0f 00    	mov    %eax,0xf292e(%rip)        # ff834 <_dl_x86_cpu_features+0x74>
    cf06:	89 1d 2c 29 0f 00    	mov    %ebx,0xf292c(%rip)        # ff838 <_dl_x86_cpu_features+0x78>
    cf0c:	89 0d 2a 29 0f 00    	mov    %ecx,0xf292a(%rip)        # ff83c <_dl_x86_cpu_features+0x7c>
    cf12:	89 15 28 29 0f 00    	mov    %edx,0xf2928(%rip)        # ff840 <_dl_x86_cpu_features+0x80>
    cf18:	7e 4b                	jle    cf65 <get_common_indices.constprop.0+0x135>
    cf1a:	b8 14 00 00 00       	mov    $0x14,%eax
    cf1f:	31 c9                	xor    %ecx,%ecx
    cf21:	0f a2                	cpuid  
    cf23:	83 3d 9a 28 0f 00 18 	cmpl   $0x18,0xf289a(%rip)        # ff7c4 <_dl_x86_cpu_features+0x4>
    cf2a:	89 05 a4 29 0f 00    	mov    %eax,0xf29a4(%rip)        # ff8d4 <_dl_x86_cpu_features+0x114>
    cf30:	89 1d a2 29 0f 00    	mov    %ebx,0xf29a2(%rip)        # ff8d8 <_dl_x86_cpu_features+0x118>
    cf36:	89 0d a0 29 0f 00    	mov    %ecx,0xf29a0(%rip)        # ff8dc <_dl_x86_cpu_features+0x11c>
    cf3c:	89 15 9e 29 0f 00    	mov    %edx,0xf299e(%rip)        # ff8e0 <_dl_x86_cpu_features+0x120>
    cf42:	7e 21                	jle    cf65 <get_common_indices.constprop.0+0x135>
    cf44:	b8 19 00 00 00       	mov    $0x19,%eax
    cf49:	31 c9                	xor    %ecx,%ecx
    cf4b:	0f a2                	cpuid  
    cf4d:	89 05 61 29 0f 00    	mov    %eax,0xf2961(%rip)        # ff8b4 <_dl_x86_cpu_features+0xf4>
    cf53:	89 1d 5f 29 0f 00    	mov    %ebx,0xf295f(%rip)        # ff8b8 <_dl_x86_cpu_features+0xf8>
    cf59:	89 0d 5d 29 0f 00    	mov    %ecx,0xf295d(%rip)        # ff8bc <_dl_x86_cpu_features+0xfc>
    cf5f:	89 15 5b 29 0f 00    	mov    %edx,0xf295b(%rip)        # ff8c0 <_dl_x86_cpu_features+0x100>
    cf65:	48 83 3d 43 28 0f 00 	cmpq   $0x0,0xf2843(%rip)        # ff7b0 <_dl_minsigstacksize>
    cf6c:	00 
    cf6d:	75 28                	jne    cf97 <get_common_indices.constprop.0+0x167>
    cf6f:	83 3d 4e 28 0f 00 0c 	cmpl   $0xc,0xf284e(%rip)        # ff7c4 <_dl_x86_cpu_features+0x4>
    cf76:	7e 22                	jle    cf9a <get_common_indices.constprop.0+0x16a>
    cf78:	f6 05 60 28 0f 00 08 	testb  $0x8,0xf2860(%rip)        # ff7df <_dl_x86_cpu_features+0x1f>
    cf7f:	74 19                	je     cf9a <get_common_indices.constprop.0+0x16a>
    cf81:	b8 0d 00 00 00       	mov    $0xd,%eax
    cf86:	31 c9                	xor    %ecx,%ecx
    cf88:	0f a2                	cpuid  
    cf8a:	8d 83 04 02 00 00    	lea    0x204(%rbx),%eax
    cf90:	48 89 05 19 28 0f 00 	mov    %rax,0xf2819(%rip)        # ff7b0 <_dl_minsigstacksize>
    cf97:	5b                   	pop    %rbx
    cf98:	5d                   	pop    %rbp
    cf99:	c3                   	ret    
    cf9a:	48 c7 05 0b 28 0f 00 	movq   $0x800,0xf280b(%rip)        # ff7b0 <_dl_minsigstacksize>
    cfa1:	00 08 00 00 
    cfa5:	eb f0                	jmp    cf97 <get_common_indices.constprop.0+0x167>
    cfa7:	c1 e8 14             	shr    $0x14,%eax
    cfaa:	0f b6 c0             	movzbl %al,%eax
    cfad:	83 c0 0f             	add    $0xf,%eax
    cfb0:	89 07                	mov    %eax,(%rdi)
    cfb2:	41 8b 00             	mov    (%r8),%eax
    cfb5:	01 06                	add    %eax,(%rsi)
    cfb7:	e9 d6 fe ff ff       	jmp    ce92 <get_common_indices.constprop.0+0x62>
    cfbc:	0f 1f 40 00          	nopl   0x0(%rax)

000000000000cfc0 <get_common_cache_info.constprop.0>:
    cfc0:	55                   	push   %rbp
    cfc1:	49 89 fb             	mov    %rdi,%r11
    cfc4:	48 89 e5             	mov    %rsp,%rbp
    cfc7:	41 57                	push   %r15
    cfc9:	49 89 d7             	mov    %rdx,%r15
    cfcc:	41 56                	push   %r14
    cfce:	41 55                	push   %r13
    cfd0:	41 54                	push   %r12
    cfd2:	49 89 f4             	mov    %rsi,%r12
    cfd5:	53                   	push   %rbx
    cfd6:	48 89 cb             	mov    %rcx,%rbx
    cfd9:	8b 35 01 28 0f 00    	mov    0xf2801(%rip),%esi        # ff7e0 <_dl_x86_cpu_features+0x20>
    cfdf:	4c 8b 2f             	mov    (%rdi),%r13
    cfe2:	8b 0d dc 27 0f 00    	mov    0xf27dc(%rip),%ecx        # ff7c4 <_dl_x86_cpu_features+0x4>
    cfe8:	81 e6 00 00 00 10    	and    $0x10000000,%esi
    cfee:	4d 85 ed             	test   %r13,%r13
    cff1:	0f 8e a8 00 00 00    	jle    d09f <get_common_cache_info.constprop.0+0xdf>
    cff7:	4d 8b 0c 24          	mov    (%r12),%r9
    cffb:	85 f6                	test   %esi,%esi
    cffd:	0f 84 ef 00 00 00    	je     d0f2 <get_common_cache_info.constprop.0+0x132>
    d003:	83 f9 03             	cmp    $0x3,%ecx
    d006:	0f 8e a2 00 00 00    	jle    d0ae <get_common_cache_info.constprop.0+0xee>
    d00c:	31 c0                	xor    %eax,%eax
    d00e:	c7 45 cc 03 00 00 00 	movl   $0x3,-0x34(%rbp)
    d015:	bf 03 00 00 00       	mov    $0x3,%edi
    d01a:	89 45 d0             	mov    %eax,-0x30(%rbp)
    d01d:	4c 89 4d c0          	mov    %r9,-0x40(%rbp)
    d021:	44 8b 05 98 27 0f 00 	mov    0xf2798(%rip),%r8d        # ff7c0 <_dl_x86_cpu_features>
    d028:	31 f6                	xor    %esi,%esi
    d02a:	45 31 f6             	xor    %r14d,%r14d
    d02d:	c6 45 d7 01          	movb   $0x1,-0x29(%rbp)
    d031:	49 89 d9             	mov    %rbx,%r9
    d034:	89 4d c8             	mov    %ecx,-0x38(%rbp)
    d037:	eb 4a                	jmp    d083 <get_common_cache_info.constprop.0+0xc3>
    d039:	0f 1f 80 00 00 00 00 	nopl   0x0(%rax)
    d040:	89 c1                	mov    %eax,%ecx
    d042:	c1 e9 05             	shr    $0x5,%ecx
    d045:	83 e1 07             	and    $0x7,%ecx
    d048:	83 f9 02             	cmp    $0x2,%ecx
    d04b:	0f 84 cf 01 00 00    	je     d220 <get_common_cache_info.constprop.0+0x260>
    d051:	83 f9 03             	cmp    $0x3,%ecx
    d054:	75 2a                	jne    d080 <get_common_cache_info.constprop.0+0xc0>
    d056:	40 f6 c7 02          	test   $0x2,%dil
    d05a:	0f 84 d9 01 00 00    	je     d239 <get_common_cache_info.constprop.0+0x279>
    d060:	c1 e8 0e             	shr    $0xe,%eax
    d063:	d1 ea                	shr    %edx
    d065:	83 e7 fd             	and    $0xfffffffd,%edi
    d068:	25 ff 03 00 00       	and    $0x3ff,%eax
    d06d:	89 45 d0             	mov    %eax,-0x30(%rbp)
    d070:	89 d0                	mov    %edx,%eax
    d072:	83 e0 01             	and    $0x1,%eax
    d075:	88 45 d7             	mov    %al,-0x29(%rbp)
    d078:	85 ff                	test   %edi,%edi
    d07a:	0f 84 a7 00 00 00    	je     d127 <get_common_cache_info.constprop.0+0x167>
    d080:	83 c6 01             	add    $0x1,%esi
    d083:	b8 04 00 00 00       	mov    $0x4,%eax
    d088:	89 f1                	mov    %esi,%ecx
    d08a:	0f a2                	cpuid  
    d08c:	41 83 f8 01          	cmp    $0x1,%r8d
    d090:	75 ae                	jne    d040 <get_common_cache_info.constprop.0+0x80>
    d092:	a8 1f                	test   $0x1f,%al
    d094:	75 aa                	jne    d040 <get_common_cache_info.constprop.0+0x80>
    d096:	4c 89 cb             	mov    %r9,%rbx
    d099:	4c 8b 4d c0          	mov    -0x40(%rbp),%r9
    d09d:	eb 16                	jmp    d0b5 <get_common_cache_info.constprop.0+0xf5>
    d09f:	85 f6                	test   %esi,%esi
    d0a1:	74 64                	je     d107 <get_common_cache_info.constprop.0+0x147>
    d0a3:	49 89 dd             	mov    %rbx,%r13
    d0a6:	49 89 d9             	mov    %rbx,%r9
    d0a9:	83 f9 03             	cmp    $0x3,%ecx
    d0ac:	7f 61                	jg     d10f <get_common_cache_info.constprop.0+0x14f>
    d0ae:	c6 45 d7 01          	movb   $0x1,-0x29(%rbp)
    d0b2:	45 31 f6             	xor    %r14d,%r14d
    d0b5:	0f b6 35 1e 27 0f 00 	movzbl 0xf271e(%rip),%esi        # ff7da <_dl_x86_cpu_features+0x1a>
    d0bc:	4d 85 c9             	test   %r9,%r9
    d0bf:	7e 11                	jle    d0d2 <get_common_cache_info.constprop.0+0x112>
    d0c1:	85 f6                	test   %esi,%esi
    d0c3:	74 0d                	je     d0d2 <get_common_cache_info.constprop.0+0x112>
    d0c5:	4c 89 c8             	mov    %r9,%rax
    d0c8:	89 f1                	mov    %esi,%ecx
    d0ca:	48 99                	cqto   
    d0cc:	48 f7 f9             	idiv   %rcx
    d0cf:	49 89 c1             	mov    %rax,%r9
    d0d2:	80 7d d7 00          	cmpb   $0x0,-0x29(%rbp)
    d0d6:	75 1a                	jne    d0f2 <get_common_cache_info.constprop.0+0x132>
    d0d8:	45 85 f6             	test   %r14d,%r14d
    d0db:	0f 8e 36 01 00 00    	jle    d217 <get_common_cache_info.constprop.0+0x257>
    d0e1:	48 89 d8             	mov    %rbx,%rax
    d0e4:	4d 63 f6             	movslq %r14d,%r14
    d0e7:	48 99                	cqto   
    d0e9:	49 f7 fe             	idiv   %r14
    d0ec:	49 01 c1             	add    %rax,%r9
    d0ef:	49 01 dd             	add    %rbx,%r13
    d0f2:	4d 89 2b             	mov    %r13,(%r11)
    d0f5:	4d 89 0c 24          	mov    %r9,(%r12)
    d0f9:	41 89 37             	mov    %esi,(%r15)
    d0fc:	5b                   	pop    %rbx
    d0fd:	41 5c                	pop    %r12
    d0ff:	41 5d                	pop    %r13
    d101:	41 5e                	pop    %r14
    d103:	41 5f                	pop    %r15
    d105:	5d                   	pop    %rbp
    d106:	c3                   	ret    
    d107:	49 89 d9             	mov    %rbx,%r9
    d10a:	49 89 dd             	mov    %rbx,%r13
    d10d:	eb e3                	jmp    d0f2 <get_common_cache_info.constprop.0+0x132>
    d10f:	c7 45 cc 02 00 00 00 	movl   $0x2,-0x34(%rbp)
    d116:	bf 01 00 00 00       	mov    $0x1,%edi
    d11b:	c7 45 d0 ff ff ff ff 	movl   $0xffffffff,-0x30(%rbp)
    d122:	e9 f6 fe ff ff       	jmp    d01d <get_common_cache_info.constprop.0+0x5d>
    d127:	83 3d 9a 26 0f 00 06 	cmpl   $0x6,0xf269a(%rip)        # ff7c8 <_dl_x86_cpu_features+0x8>
    d12e:	4c 89 cb             	mov    %r9,%rbx
    d131:	4c 8b 4d c0          	mov    -0x40(%rbp),%r9
    d135:	0f 94 45 c0          	sete   -0x40(%rbp)
    d139:	41 83 f8 03          	cmp    $0x3,%r8d
    d13d:	8b 4d c8             	mov    -0x38(%rbp),%ecx
    d140:	0f 94 c0             	sete   %al
    d143:	84 45 c0             	test   %al,-0x40(%rbp)
    d146:	0f 85 93 00 00 00    	jne    d1df <get_common_cache_info.constprop.0+0x21f>
    d14c:	83 f9 0a             	cmp    $0xa,%ecx
    d14f:	0f 8e 8a 00 00 00    	jle    d1df <get_common_cache_info.constprop.0+0x21f>
    d155:	8b 75 cc             	mov    -0x34(%rbp),%esi
    d158:	45 85 f6             	test   %r14d,%r14d
    d15b:	0f 95 c2             	setne  %dl
    d15e:	31 c0                	xor    %eax,%eax
    d160:	83 fe 03             	cmp    $0x3,%esi
    d163:	0f 94 c0             	sete   %al
    d166:	21 d0                	and    %edx,%eax
    d168:	41 89 c2             	mov    %eax,%r10d
    d16b:	41 83 ca 02          	or     $0x2,%r10d
    d16f:	83 7d d0 00          	cmpl   $0x0,-0x30(%rbp)
    d173:	0f 8e 68 01 00 00    	jle    d2e1 <get_common_cache_info.constprop.0+0x321>
    d179:	48 89 de             	mov    %rbx,%rsi
    d17c:	eb 0f                	jmp    d18d <get_common_cache_info.constprop.0+0x1cd>
    d17e:	81 f9 00 02 00 00    	cmp    $0x200,%ecx
    d184:	0f 84 c3 00 00 00    	je     d24d <get_common_cache_info.constprop.0+0x28d>
    d18a:	83 c7 01             	add    $0x1,%edi
    d18d:	b8 0b 00 00 00       	mov    $0xb,%eax
    d192:	89 f9                	mov    %edi,%ecx
    d194:	0f a2                	cpuid  
    d196:	81 e1 00 ff 00 00    	and    $0xff00,%ecx
    d19c:	81 e3 ff 00 00 00    	and    $0xff,%ebx
    d1a2:	74 38                	je     d1dc <get_common_cache_info.constprop.0+0x21c>
    d1a4:	85 c9                	test   %ecx,%ecx
    d1a6:	74 34                	je     d1dc <get_common_cache_info.constprop.0+0x21c>
    d1a8:	81 f9 00 01 00 00    	cmp    $0x100,%ecx
    d1ae:	75 ce                	jne    d17e <get_common_cache_info.constprop.0+0x1be>
    d1b0:	41 f6 c2 01          	test   $0x1,%r10b
    d1b4:	0f 84 c4 00 00 00    	je     d27e <get_common_cache_info.constprop.0+0x2be>
    d1ba:	41 0f bd ce          	bsr    %r14d,%ecx
    d1be:	41 be ff ff ff ff    	mov    $0xffffffff,%r14d
    d1c4:	83 c1 01             	add    $0x1,%ecx
    d1c7:	83 eb 01             	sub    $0x1,%ebx
    d1ca:	41 83 e2 fe          	and    $0xfffffffe,%r10d
    d1ce:	41 d3 e6             	shl    %cl,%r14d
    d1d1:	41 f7 d6             	not    %r14d
    d1d4:	41 21 de             	and    %ebx,%r14d
    d1d7:	45 85 d2             	test   %r10d,%r10d
    d1da:	75 ae                	jne    d18a <get_common_cache_info.constprop.0+0x1ca>
    d1dc:	48 89 f3             	mov    %rsi,%rbx
    d1df:	45 85 f6             	test   %r14d,%r14d
    d1e2:	7e 04                	jle    d1e8 <get_common_cache_info.constprop.0+0x228>
    d1e4:	41 83 c6 01          	add    $0x1,%r14d
    d1e8:	8b 45 d0             	mov    -0x30(%rbp),%eax
    d1eb:	85 c0                	test   %eax,%eax
    d1ed:	7e 06                	jle    d1f5 <get_common_cache_info.constprop.0+0x235>
    d1ef:	83 c0 01             	add    $0x1,%eax
    d1f2:	89 45 d0             	mov    %eax,-0x30(%rbp)
    d1f5:	8b 75 d0             	mov    -0x30(%rbp),%esi
    d1f8:	83 7d cc 02          	cmpl   $0x2,-0x34(%rbp)
    d1fc:	0f 85 ba fe ff ff    	jne    d0bc <get_common_cache_info.constprop.0+0xfc>
    d202:	45 85 f6             	test   %r14d,%r14d
    d205:	0f 85 89 00 00 00    	jne    d294 <get_common_cache_info.constprop.0+0x2d4>
    d20b:	31 f6                	xor    %esi,%esi
    d20d:	80 7d d7 00          	cmpb   $0x0,-0x29(%rbp)
    d211:	0f 85 db fe ff ff    	jne    d0f2 <get_common_cache_info.constprop.0+0x132>
    d217:	48 89 d8             	mov    %rbx,%rax
    d21a:	e9 cd fe ff ff       	jmp    d0ec <get_common_cache_info.constprop.0+0x12c>
    d21f:	90                   	nop
    d220:	40 f6 c7 01          	test   $0x1,%dil
    d224:	74 1d                	je     d243 <get_common_cache_info.constprop.0+0x283>
    d226:	c1 e8 0e             	shr    $0xe,%eax
    d229:	83 e7 fe             	and    $0xfffffffe,%edi
    d22c:	25 ff 03 00 00       	and    $0x3ff,%eax
    d231:	41 89 c6             	mov    %eax,%r14d
    d234:	e9 3f fe ff ff       	jmp    d078 <get_common_cache_info.constprop.0+0xb8>
    d239:	bf 01 00 00 00       	mov    $0x1,%edi
    d23e:	e9 3d fe ff ff       	jmp    d080 <get_common_cache_info.constprop.0+0xc0>
    d243:	bf 02 00 00 00       	mov    $0x2,%edi
    d248:	e9 33 fe ff ff       	jmp    d080 <get_common_cache_info.constprop.0+0xc0>
    d24d:	41 f6 c2 02          	test   $0x2,%r10b
    d251:	74 36                	je     d289 <get_common_cache_info.constprop.0+0x2c9>
    d253:	83 eb 01             	sub    $0x1,%ebx
    d256:	83 7d cc 02          	cmpl   $0x2,-0x34(%rbp)
    d25a:	0f 84 9d 00 00 00    	je     d2fd <get_common_cache_info.constprop.0+0x33d>
    d260:	0f bd 4d d0          	bsr    -0x30(%rbp),%ecx
    d264:	b8 ff ff ff ff       	mov    $0xffffffff,%eax
    d269:	83 c1 01             	add    $0x1,%ecx
    d26c:	d3 e0                	shl    %cl,%eax
    d26e:	f7 d0                	not    %eax
    d270:	21 d8                	and    %ebx,%eax
    d272:	89 45 d0             	mov    %eax,-0x30(%rbp)
    d275:	41 83 e2 fd          	and    $0xfffffffd,%r10d
    d279:	e9 59 ff ff ff       	jmp    d1d7 <get_common_cache_info.constprop.0+0x217>
    d27e:	41 ba 02 00 00 00    	mov    $0x2,%r10d
    d284:	e9 01 ff ff ff       	jmp    d18a <get_common_cache_info.constprop.0+0x1ca>
    d289:	41 ba 01 00 00 00    	mov    $0x1,%r10d
    d28f:	e9 f6 fe ff ff       	jmp    d18a <get_common_cache_info.constprop.0+0x1ca>
    d294:	41 83 e8 01          	sub    $0x1,%r8d
    d298:	44 89 f6             	mov    %r14d,%esi
    d29b:	0f 85 1b fe ff ff    	jne    d0bc <get_common_cache_info.constprop.0+0xfc>
    d2a1:	41 83 fe 02          	cmp    $0x2,%r14d
    d2a5:	0f 84 11 fe ff ff    	je     d0bc <get_common_cache_info.constprop.0+0xfc>
    d2ab:	80 7d c0 00          	cmpb   $0x0,-0x40(%rbp)
    d2af:	0f 84 07 fe ff ff    	je     d0bc <get_common_cache_info.constprop.0+0xfc>
    d2b5:	8b 05 11 25 0f 00    	mov    0xf2511(%rip),%eax        # ff7cc <_dl_x86_cpu_features+0xc>
    d2bb:	83 e8 37             	sub    $0x37,%eax
    d2be:	83 f8 26             	cmp    $0x26,%eax
    d2c1:	0f 87 f5 fd ff ff    	ja     d0bc <get_common_cache_info.constprop.0+0xfc>
    d2c7:	48 ba 01 00 48 00 48 	movabs $0x4800480001,%rdx
    d2ce:	00 00 00 
    d2d1:	8b 75 cc             	mov    -0x34(%rbp),%esi
    d2d4:	48 0f a3 c2          	bt     %rax,%rdx
    d2d8:	41 0f 43 f6          	cmovae %r14d,%esi
    d2dc:	e9 db fd ff ff       	jmp    d0bc <get_common_cache_info.constprop.0+0xfc>
    d2e1:	31 c9                	xor    %ecx,%ecx
    d2e3:	83 fe 02             	cmp    $0x2,%esi
    d2e6:	0f 94 c1             	sete   %cl
    d2e9:	21 d1                	and    %edx,%ecx
    d2eb:	44 8d 14 09          	lea    (%rcx,%rcx,1),%r10d
    d2ef:	41 09 c2             	or     %eax,%r10d
    d2f2:	0f 85 81 fe ff ff    	jne    d179 <get_common_cache_info.constprop.0+0x1b9>
    d2f8:	e9 e2 fe ff ff       	jmp    d1df <get_common_cache_info.constprop.0+0x21f>
    d2fd:	41 0f bd ce          	bsr    %r14d,%ecx
    d301:	41 be ff ff ff ff    	mov    $0xffffffff,%r14d
    d307:	83 c1 01             	add    $0x1,%ecx
    d30a:	41 d3 e6             	shl    %cl,%r14d
    d30d:	41 f7 d6             	not    %r14d
    d310:	41 21 de             	and    %ebx,%r14d
    d313:	e9 5d ff ff ff       	jmp    d275 <get_common_cache_info.constprop.0+0x2b5>
    d318:	0f 1f 84 00 00 00 00 	nopl   0x0(%rax,%rax,1)
    d31f:	00 

000000000000d320 <intel_check_word.constprop.0>:
    d320:	85 f6                	test   %esi,%esi
    d322:	0f 8e 34 01 00 00    	jle    d45c <intel_check_word.constprop.0+0x13c>
    d328:	55                   	push   %rbp
    d329:	49 89 ca             	mov    %rcx,%r10
    d32c:	b9 ab aa aa aa       	mov    $0xaaaaaaab,%ecx
    d331:	89 f0                	mov    %esi,%eax
    d333:	41 89 f8             	mov    %edi,%r8d
    d336:	4c 8d 1d 23 d9 0a 00 	lea    0xad923(%rip),%r11        # bac60 <intel_02_known>
    d33d:	48 89 e5             	mov    %rsp,%rbp
    d340:	41 56                	push   %r14
    d342:	41 55                	push   %r13
    d344:	41 bd 06 00 00 00    	mov    $0x6,%r13d
    d34a:	41 54                	push   %r12
    d34c:	49 89 d4             	mov    %rdx,%r12
    d34f:	8d 97 47 ff ff ff    	lea    -0xb9(%rdi),%edx
    d355:	48 0f af d1          	imul   %rcx,%rdx
    d359:	53                   	push   %rbx
    d35a:	48 c1 ea 21          	shr    $0x21,%rdx
    d35e:	83 3d 63 24 0f 00 0f 	cmpl   $0xf,0xf2463(%rip)        # ff7c8 <_dl_x86_cpu_features+0x8>
    d365:	0f 94 c3             	sete   %bl
    d368:	83 3d 5d 24 0f 00 06 	cmpl   $0x6,0xf245d(%rip)        # ff7cc <_dl_x86_cpu_features+0xc>
    d36f:	44 8d 0c 52          	lea    (%rdx,%rdx,2),%r9d
    d373:	0f 94 c2             	sete   %dl
    d376:	21 d3                	and    %edx,%ebx
    d378:	0f b6 d0             	movzbl %al,%edx
    d37b:	3c 40                	cmp    $0x40,%al
    d37d:	75 7f                	jne    d3fe <intel_check_word.constprop.0+0xde>
    d37f:	41 c6 02 01          	movb   $0x1,(%r10)
    d383:	41 83 f9 09          	cmp    $0x9,%r9d
    d387:	74 28                	je     d3b1 <intel_check_word.constprop.0+0x91>
    d389:	89 c1                	mov    %eax,%ecx
    d38b:	c1 e9 08             	shr    $0x8,%ecx
    d38e:	74 21                	je     d3b1 <intel_check_word.constprop.0+0x91>
    d390:	0f b6 d1             	movzbl %cl,%edx
    d393:	80 f9 40             	cmp    $0x40,%cl
    d396:	75 28                	jne    d3c0 <intel_check_word.constprop.0+0xa0>
    d398:	c1 e8 10             	shr    $0x10,%eax
    d39b:	89 c1                	mov    %eax,%ecx
    d39d:	74 12                	je     d3b1 <intel_check_word.constprop.0+0x91>
    d39f:	0f b6 d0             	movzbl %al,%edx
    d3a2:	3c 40                	cmp    $0x40,%al
    d3a4:	75 5a                	jne    d400 <intel_check_word.constprop.0+0xe0>
    d3a6:	89 c1                	mov    %eax,%ecx
    d3a8:	41 c6 02 01          	movb   $0x1,(%r10)
    d3ac:	c1 e9 08             	shr    $0x8,%ecx
    d3af:	75 df                	jne    d390 <intel_check_word.constprop.0+0x70>
    d3b1:	31 c0                	xor    %eax,%eax
    d3b3:	5b                   	pop    %rbx
    d3b4:	41 5c                	pop    %r12
    d3b6:	41 5d                	pop    %r13
    d3b8:	41 5e                	pop    %r14
    d3ba:	5d                   	pop    %rbp
    d3bb:	c3                   	ret    
    d3bc:	0f 1f 40 00          	nopl   0x0(%rax)
